
test.elf:     file format elf32-littlearm

Sections:
Idx Name          Size      VMA       LMA       File off  Algn
  0 .isr_vector   0000010c  08000000  08000000  00010000  2**0
                  CONTENTS, ALLOC, LOAD, READONLY, DATA
  1 .text         00003f70  0800010c  0800010c  0001010c  2**2
                  CONTENTS, ALLOC, LOAD, READONLY, CODE
  2 .rodata       00000134  0800407c  0800407c  0001407c  2**2
                  CONTENTS, ALLOC, LOAD, READONLY, DATA
  3 .init_array   00000004  080041b0  080041b0  000141b0  2**2
                  CONTENTS, ALLOC, LOAD, DATA
  4 .fini_array   00000004  080041b4  080041b4  000141b4  2**2
                  CONTENTS, ALLOC, LOAD, DATA
  5 .data         000001e0  20000000  080041b8  00020000  2**2
                  CONTENTS, ALLOC, LOAD, DATA
  6 .bss          000011a8  200001e0  08004398  000201e0  2**2
                  ALLOC
  7 ._user_heap_stack 00000600  20001388  08004398  00021388  2**0
                  ALLOC
  8 .ARM.attributes 00000029  00000000  00000000  000201e0  2**0
                  CONTENTS, READONLY
  9 .comment      0000007c  00000000  00000000  00020209  2**0
                  CONTENTS, READONLY
 10 .debug_frame  000007fc  00000000  00000000  00020288  2**2
                  CONTENTS, READONLY, DEBUGGING

Disassembly of section .text:

0800010c <__do_global_dtors_aux>:
 800010c:	b510      	push	{r4, lr}
 800010e:	4c05      	ldr	r4, [pc, #20]	; (8000124 <__do_global_dtors_aux+0x18>)
 8000110:	7823      	ldrb	r3, [r4, #0]
 8000112:	b933      	cbnz	r3, 8000122 <__do_global_dtors_aux+0x16>
 8000114:	4b04      	ldr	r3, [pc, #16]	; (8000128 <__do_global_dtors_aux+0x1c>)
 8000116:	b113      	cbz	r3, 800011e <__do_global_dtors_aux+0x12>
 8000118:	4804      	ldr	r0, [pc, #16]	; (800012c <__do_global_dtors_aux+0x20>)
 800011a:	f3af 8000 	nop.w
 800011e:	2301      	movs	r3, #1
 8000120:	7023      	strb	r3, [r4, #0]
 8000122:	bd10      	pop	{r4, pc}
 8000124:	200001e0 	.word	0x200001e0
 8000128:	00000000 	.word	0x00000000
 800012c:	08004064 	.word	0x08004064

08000130 <frame_dummy>:
 8000130:	b508      	push	{r3, lr}
 8000132:	4b03      	ldr	r3, [pc, #12]	; (8000140 <frame_dummy+0x10>)
 8000134:	b11b      	cbz	r3, 800013e <frame_dummy+0xe>
 8000136:	4903      	ldr	r1, [pc, #12]	; (8000144 <frame_dummy+0x14>)
 8000138:	4803      	ldr	r0, [pc, #12]	; (8000148 <frame_dummy+0x18>)
 800013a:	f3af 8000 	nop.w
 800013e:	bd08      	pop	{r3, pc}
 8000140:	00000000 	.word	0x00000000
 8000144:	200001e4 	.word	0x200001e4
 8000148:	08004064 	.word	0x08004064

0800014c <HAL_InitTick>:
 800014c:	b538      	push	{r3, r4, r5, lr}
 800014e:	4b0e      	ldr	r3, [pc, #56]	; (8000188 <HAL_InitTick+0x3c>)
 8000150:	4605      	mov	r5, r0
 8000152:	7818      	ldrb	r0, [r3, #0]
 8000154:	f44f 737a 	mov.w	r3, #1000	; 0x3e8
 8000158:	fbb3 f3f0 	udiv	r3, r3, r0
 800015c:	4a0b      	ldr	r2, [pc, #44]	; (800018c <HAL_InitTick+0x40>)
 800015e:	6810      	ldr	r0, [r2, #0]
 8000160:	fbb0 f0f3 	udiv	r0, r0, r3
 8000164:	f000 f88e 	bl	8000284 <HAL_SYSTICK_Config>
 8000168:	4604      	mov	r4, r0
 800016a:	b958      	cbnz	r0, 8000184 <HAL_InitTick+0x38>
 800016c:	2d0f      	cmp	r5, #15
 800016e:	d809      	bhi.n	8000184 <HAL_InitTick+0x38>
 8000170:	4602      	mov	r2, r0
 8000172:	4629      	mov	r1, r5
 8000174:	f04f 30ff 	mov.w	r0, #4294967295
 8000178:	f000 f842 	bl	8000200 <HAL_NVIC_SetPriority>
 800017c:	4b04      	ldr	r3, [pc, #16]	; (8000190 <HAL_InitTick+0x44>)
 800017e:	4620      	mov	r0, r4
 8000180:	601d      	str	r5, [r3, #0]
 8000182:	bd38      	pop	{r3, r4, r5, pc}
 8000184:	2001      	movs	r0, #1
 8000186:	bd38      	pop	{r3, r4, r5, pc}
 8000188:	20000000 	.word	0x20000000
 800018c:	20000118 	.word	0x20000118
 8000190:	20000004 	.word	0x20000004

08000194 <HAL_Init>:
 8000194:	4a07      	ldr	r2, [pc, #28]	; (80001b4 <HAL_Init+0x20>)
 8000196:	b508      	push	{r3, lr}
 8000198:	6813      	ldr	r3, [r2, #0]
 800019a:	2003      	movs	r0, #3
 800019c:	f043 0310 	orr.w	r3, r3, #16
 80001a0:	6013      	str	r3, [r2, #0]
 80001a2:	f000 f81b 	bl	80001dc <HAL_NVIC_SetPriorityGrouping>
 80001a6:	2000      	movs	r0, #0
 80001a8:	f7ff ffd0 	bl	800014c <HAL_InitTick>
 80001ac:	f002 fc28 	bl	8002a00 <HAL_MspInit>
 80001b0:	2000      	movs	r0, #0
 80001b2:	bd08      	pop	{r3, pc}
 80001b4:	40022000 	.word	0x40022000

080001b8 <HAL_IncTick>:
 80001b8:	4a03      	ldr	r2, [pc, #12]	; (80001c8 <HAL_IncTick+0x10>)
 80001ba:	4b04      	ldr	r3, [pc, #16]	; (80001cc <HAL_IncTick+0x14>)
 80001bc:	6811      	ldr	r1, [r2, #0]
 80001be:	781b      	ldrb	r3, [r3, #0]
 80001c0:	440b      	add	r3, r1
 80001c2:	6013      	str	r3, [r2, #0]
 80001c4:	4770      	bx	lr
 80001c6:	bf00      	nop
 80001c8:	20000440 	.word	0x20000440
 80001cc:	20000000 	.word	0x20000000

080001d0 <HAL_GetTick>:
 80001d0:	4b01      	ldr	r3, [pc, #4]	; (80001d8 <HAL_GetTick+0x8>)
 80001d2:	6818      	ldr	r0, [r3, #0]
 80001d4:	4770      	bx	lr
 80001d6:	bf00      	nop
 80001d8:	20000440 	.word	0x20000440

080001dc <HAL_NVIC_SetPriorityGrouping>:
 80001dc:	4a07      	ldr	r2, [pc, #28]	; (80001fc <HAL_NVIC_SetPriorityGrouping+0x20>)
 80001de:	0200      	lsls	r0, r0, #8
 80001e0:	68d3      	ldr	r3, [r2, #12]
 80001e2:	f400 60e0 	and.w	r0, r0, #1792	; 0x700
 80001e6:	f423 63e0 	bic.w	r3, r3, #1792	; 0x700
 80001ea:	041b      	lsls	r3, r3, #16
 80001ec:	0c1b      	lsrs	r3, r3, #16
 80001ee:	f043 63bf 	orr.w	r3, r3, #100139008	; 0x5f80000
 80001f2:	f443 3300 	orr.w	r3, r3, #131072	; 0x20000
 80001f6:	4303      	orrs	r3, r0
 80001f8:	60d3      	str	r3, [r2, #12]
 80001fa:	4770      	bx	lr
 80001fc:	e000ed00 	.word	0xe000ed00

08000200 <HAL_NVIC_SetPriority>:
 8000200:	4b17      	ldr	r3, [pc, #92]	; (8000260 <HAL_NVIC_SetPriority+0x60>)
 8000202:	b530      	push	{r4, r5, lr}
 8000204:	68dc      	ldr	r4, [r3, #12]
 8000206:	f3c4 2402 	ubfx	r4, r4, #8, #3
 800020a:	f1c4 0307 	rsb	r3, r4, #7
 800020e:	1d25      	adds	r5, r4, #4
 8000210:	2b04      	cmp	r3, #4
 8000212:	bf28      	it	cs
 8000214:	2304      	movcs	r3, #4
 8000216:	2d06      	cmp	r5, #6
 8000218:	f04f 0501 	mov.w	r5, #1
 800021c:	bf98      	it	ls
 800021e:	2400      	movls	r4, #0
 8000220:	fa05 f303 	lsl.w	r3, r5, r3
 8000224:	f103 33ff 	add.w	r3, r3, #4294967295
 8000228:	bf88      	it	hi
 800022a:	3c03      	subhi	r4, #3
 800022c:	4019      	ands	r1, r3
 800022e:	40a1      	lsls	r1, r4
 8000230:	fa05 f404 	lsl.w	r4, r5, r4
 8000234:	3c01      	subs	r4, #1
 8000236:	4022      	ands	r2, r4
 8000238:	2800      	cmp	r0, #0
 800023a:	ea42 0201 	orr.w	r2, r2, r1
 800023e:	ea4f 1202 	mov.w	r2, r2, lsl #4
 8000242:	bfa9      	itett	ge
 8000244:	f100 4060 	addge.w	r0, r0, #3758096384	; 0xe0000000
 8000248:	4b06      	ldrlt	r3, [pc, #24]	; (8000264 <HAL_NVIC_SetPriority+0x64>)
 800024a:	b2d2      	uxtbge	r2, r2
 800024c:	f500 4061 	addge.w	r0, r0, #57600	; 0xe100
 8000250:	bfbb      	ittet	lt
 8000252:	f000 000f 	andlt.w	r0, r0, #15
 8000256:	b2d2      	uxtblt	r2, r2
 8000258:	f880 2300 	strbge.w	r2, [r0, #768]	; 0x300
 800025c:	541a      	strblt	r2, [r3, r0]
 800025e:	bd30      	pop	{r4, r5, pc}
 8000260:	e000ed00 	.word	0xe000ed00
 8000264:	e000ed14 	.word	0xe000ed14

08000268 <HAL_NVIC_EnableIRQ>:
 8000268:	2800      	cmp	r0, #0
 800026a:	db08      	blt.n	800027e <HAL_NVIC_EnableIRQ+0x16>
 800026c:	2301      	movs	r3, #1
 800026e:	0942      	lsrs	r2, r0, #5
 8000270:	f000 001f 	and.w	r0, r0, #31
 8000274:	fa03 f000 	lsl.w	r0, r3, r0
 8000278:	4b01      	ldr	r3, [pc, #4]	; (8000280 <HAL_NVIC_EnableIRQ+0x18>)
 800027a:	f843 0022 	str.w	r0, [r3, r2, lsl #2]
 800027e:	4770      	bx	lr
 8000280:	e000e100 	.word	0xe000e100

08000284 <HAL_SYSTICK_Config>:
 8000284:	3801      	subs	r0, #1
 8000286:	f1b0 7f80 	cmp.w	r0, #16777216	; 0x1000000
 800028a:	d20a      	bcs.n	80002a2 <HAL_SYSTICK_Config+0x1e>
 800028c:	21f0      	movs	r1, #240	; 0xf0
 800028e:	4b06      	ldr	r3, [pc, #24]	; (80002a8 <HAL_SYSTICK_Config+0x24>)
 8000290:	4a06      	ldr	r2, [pc, #24]	; (80002ac <HAL_SYSTICK_Config+0x28>)
 8000292:	6058      	str	r0, [r3, #4]
 8000294:	f882 1023 	strb.w	r1, [r2, #35]	; 0x23
 8000298:	2000      	movs	r0, #0
 800029a:	2207      	movs	r2, #7
 800029c:	6098      	str	r0, [r3, #8]
 800029e:	601a      	str	r2, [r3, #0]
 80002a0:	4770      	bx	lr
 80002a2:	2001      	movs	r0, #1
 80002a4:	4770      	bx	lr
 80002a6:	bf00      	nop
 80002a8:	e000e010 	.word	0xe000e010
 80002ac:	e000ed00 	.word	0xe000ed00

080002b0 <HAL_GPIO_Init>:
 80002b0:	e92d 4ff7 	stmdb	sp!, {r0, r1, r2, r4, r5, r6, r7, r8, r9, sl, fp, lr}
 80002b4:	2400      	movs	r4, #0
 80002b6:	4626      	mov	r6, r4
 80002b8:	4b66      	ldr	r3, [pc, #408]	; (8000454 <HAL_GPIO_Init+0x1a4>)
 80002ba:	f8df e1a8 	ldr.w	lr, [pc, #424]	; 8000464 <HAL_GPIO_Init+0x1b4>
 80002be:	f8df c1a8 	ldr.w	ip, [pc, #424]	; 8000468 <HAL_GPIO_Init+0x1b8>
 80002c2:	680a      	ldr	r2, [r1, #0]
 80002c4:	fa32 f506 	lsrs.w	r5, r2, r6
 80002c8:	d102      	bne.n	80002d0 <HAL_GPIO_Init+0x20>
 80002ca:	b003      	add	sp, #12
 80002cc:	e8bd 8ff0 	ldmia.w	sp!, {r4, r5, r6, r7, r8, r9, sl, fp, pc}
 80002d0:	f04f 0801 	mov.w	r8, #1
 80002d4:	fa08 f806 	lsl.w	r8, r8, r6
 80002d8:	ea02 0208 	and.w	r2, r2, r8
 80002dc:	4590      	cmp	r8, r2
 80002de:	d17f      	bne.n	80003e0 <HAL_GPIO_Init+0x130>
 80002e0:	684d      	ldr	r5, [r1, #4]
 80002e2:	2d12      	cmp	r5, #18
 80002e4:	f000 80aa 	beq.w	800043c <HAL_GPIO_Init+0x18c>
 80002e8:	f200 8083 	bhi.w	80003f2 <HAL_GPIO_Init+0x142>
 80002ec:	2d02      	cmp	r5, #2
 80002ee:	f000 80a2 	beq.w	8000436 <HAL_GPIO_Init+0x186>
 80002f2:	d877      	bhi.n	80003e4 <HAL_GPIO_Init+0x134>
 80002f4:	2d00      	cmp	r5, #0
 80002f6:	f000 8089 	beq.w	800040c <HAL_GPIO_Init+0x15c>
 80002fa:	2d01      	cmp	r5, #1
 80002fc:	f000 8099 	beq.w	8000432 <HAL_GPIO_Init+0x182>
 8000300:	f04f 090f 	mov.w	r9, #15
 8000304:	2aff      	cmp	r2, #255	; 0xff
 8000306:	bf93      	iteet	ls
 8000308:	4682      	movls	sl, r0
 800030a:	f106 4580 	addhi.w	r5, r6, #1073741824	; 0x40000000
 800030e:	3d08      	subhi	r5, #8
 8000310:	f8d0 b000 	ldrls.w	fp, [r0]
 8000314:	bf92      	itee	ls
 8000316:	00b5      	lslls	r5, r6, #2
 8000318:	f8d0 b004 	ldrhi.w	fp, [r0, #4]
 800031c:	00ad      	lslhi	r5, r5, #2
 800031e:	fa09 f805 	lsl.w	r8, r9, r5
 8000322:	ea2b 0808 	bic.w	r8, fp, r8
 8000326:	fa04 f505 	lsl.w	r5, r4, r5
 800032a:	bf88      	it	hi
 800032c:	f100 0a04 	addhi.w	sl, r0, #4
 8000330:	ea48 0505 	orr.w	r5, r8, r5
 8000334:	f8ca 5000 	str.w	r5, [sl]
 8000338:	f8d1 a004 	ldr.w	sl, [r1, #4]
 800033c:	f01a 5f80 	tst.w	sl, #268435456	; 0x10000000
 8000340:	d04e      	beq.n	80003e0 <HAL_GPIO_Init+0x130>
 8000342:	4d45      	ldr	r5, [pc, #276]	; (8000458 <HAL_GPIO_Init+0x1a8>)
 8000344:	4f44      	ldr	r7, [pc, #272]	; (8000458 <HAL_GPIO_Init+0x1a8>)
 8000346:	69ad      	ldr	r5, [r5, #24]
 8000348:	f026 0803 	bic.w	r8, r6, #3
 800034c:	f045 0501 	orr.w	r5, r5, #1
 8000350:	61bd      	str	r5, [r7, #24]
 8000352:	69bd      	ldr	r5, [r7, #24]
 8000354:	f108 4880 	add.w	r8, r8, #1073741824	; 0x40000000
 8000358:	f005 0501 	and.w	r5, r5, #1
 800035c:	9501      	str	r5, [sp, #4]
 800035e:	f508 3880 	add.w	r8, r8, #65536	; 0x10000
 8000362:	f006 0b03 	and.w	fp, r6, #3
 8000366:	9d01      	ldr	r5, [sp, #4]
 8000368:	ea4f 0b8b 	mov.w	fp, fp, lsl #2
 800036c:	f8d8 5008 	ldr.w	r5, [r8, #8]
 8000370:	fa09 f90b 	lsl.w	r9, r9, fp
 8000374:	ea25 0909 	bic.w	r9, r5, r9
 8000378:	4d38      	ldr	r5, [pc, #224]	; (800045c <HAL_GPIO_Init+0x1ac>)
 800037a:	42a8      	cmp	r0, r5
 800037c:	d063      	beq.n	8000446 <HAL_GPIO_Init+0x196>
 800037e:	f505 6580 	add.w	r5, r5, #1024	; 0x400
 8000382:	42a8      	cmp	r0, r5
 8000384:	d061      	beq.n	800044a <HAL_GPIO_Init+0x19a>
 8000386:	f505 6580 	add.w	r5, r5, #1024	; 0x400
 800038a:	42a8      	cmp	r0, r5
 800038c:	d05f      	beq.n	800044e <HAL_GPIO_Init+0x19e>
 800038e:	f505 6580 	add.w	r5, r5, #1024	; 0x400
 8000392:	42a8      	cmp	r0, r5
 8000394:	bf0c      	ite	eq
 8000396:	2503      	moveq	r5, #3
 8000398:	2504      	movne	r5, #4
 800039a:	fa05 f50b 	lsl.w	r5, r5, fp
 800039e:	ea45 0509 	orr.w	r5, r5, r9
 80003a2:	f8c8 5008 	str.w	r5, [r8, #8]
 80003a6:	681d      	ldr	r5, [r3, #0]
 80003a8:	f41a 3f80 	tst.w	sl, #65536	; 0x10000
 80003ac:	bf14      	ite	ne
 80003ae:	4315      	orrne	r5, r2
 80003b0:	4395      	biceq	r5, r2
 80003b2:	601d      	str	r5, [r3, #0]
 80003b4:	685d      	ldr	r5, [r3, #4]
 80003b6:	f41a 3f00 	tst.w	sl, #131072	; 0x20000
 80003ba:	bf14      	ite	ne
 80003bc:	4315      	orrne	r5, r2
 80003be:	4395      	biceq	r5, r2
 80003c0:	605d      	str	r5, [r3, #4]
 80003c2:	689d      	ldr	r5, [r3, #8]
 80003c4:	f41a 1f80 	tst.w	sl, #1048576	; 0x100000
 80003c8:	bf14      	ite	ne
 80003ca:	4315      	orrne	r5, r2
 80003cc:	4395      	biceq	r5, r2
 80003ce:	609d      	str	r5, [r3, #8]
 80003d0:	68dd      	ldr	r5, [r3, #12]
 80003d2:	f41a 1f00 	tst.w	sl, #2097152	; 0x200000
 80003d6:	bf14      	ite	ne
 80003d8:	432a      	orrne	r2, r5
 80003da:	ea25 0202 	biceq.w	r2, r5, r2
 80003de:	60da      	str	r2, [r3, #12]
 80003e0:	3601      	adds	r6, #1
 80003e2:	e76e      	b.n	80002c2 <HAL_GPIO_Init+0x12>
 80003e4:	2d03      	cmp	r5, #3
 80003e6:	d022      	beq.n	800042e <HAL_GPIO_Init+0x17e>
 80003e8:	2d11      	cmp	r5, #17
 80003ea:	d189      	bne.n	8000300 <HAL_GPIO_Init+0x50>
 80003ec:	68cc      	ldr	r4, [r1, #12]
 80003ee:	3404      	adds	r4, #4
 80003f0:	e786      	b.n	8000300 <HAL_GPIO_Init+0x50>
 80003f2:	4f1b      	ldr	r7, [pc, #108]	; (8000460 <HAL_GPIO_Init+0x1b0>)
 80003f4:	42bd      	cmp	r5, r7
 80003f6:	d009      	beq.n	800040c <HAL_GPIO_Init+0x15c>
 80003f8:	d812      	bhi.n	8000420 <HAL_GPIO_Init+0x170>
 80003fa:	f8df 9070 	ldr.w	r9, [pc, #112]	; 800046c <HAL_GPIO_Init+0x1bc>
 80003fe:	454d      	cmp	r5, r9
 8000400:	d004      	beq.n	800040c <HAL_GPIO_Init+0x15c>
 8000402:	f509 3980 	add.w	r9, r9, #65536	; 0x10000
 8000406:	454d      	cmp	r5, r9
 8000408:	f47f af7a 	bne.w	8000300 <HAL_GPIO_Init+0x50>
 800040c:	688c      	ldr	r4, [r1, #8]
 800040e:	b1c4      	cbz	r4, 8000442 <HAL_GPIO_Init+0x192>
 8000410:	2c01      	cmp	r4, #1
 8000412:	bf0c      	ite	eq
 8000414:	f8c0 8010 	streq.w	r8, [r0, #16]
 8000418:	f8c0 8014 	strne.w	r8, [r0, #20]
 800041c:	2408      	movs	r4, #8
 800041e:	e76f      	b.n	8000300 <HAL_GPIO_Init+0x50>
 8000420:	4575      	cmp	r5, lr
 8000422:	d0f3      	beq.n	800040c <HAL_GPIO_Init+0x15c>
 8000424:	4565      	cmp	r5, ip
 8000426:	d0f1      	beq.n	800040c <HAL_GPIO_Init+0x15c>
 8000428:	f8df 9044 	ldr.w	r9, [pc, #68]	; 8000470 <HAL_GPIO_Init+0x1c0>
 800042c:	e7eb      	b.n	8000406 <HAL_GPIO_Init+0x156>
 800042e:	2400      	movs	r4, #0
 8000430:	e766      	b.n	8000300 <HAL_GPIO_Init+0x50>
 8000432:	68cc      	ldr	r4, [r1, #12]
 8000434:	e764      	b.n	8000300 <HAL_GPIO_Init+0x50>
 8000436:	68cc      	ldr	r4, [r1, #12]
 8000438:	3408      	adds	r4, #8
 800043a:	e761      	b.n	8000300 <HAL_GPIO_Init+0x50>
 800043c:	68cc      	ldr	r4, [r1, #12]
 800043e:	340c      	adds	r4, #12
 8000440:	e75e      	b.n	8000300 <HAL_GPIO_Init+0x50>
 8000442:	2404      	movs	r4, #4
 8000444:	e75c      	b.n	8000300 <HAL_GPIO_Init+0x50>
 8000446:	2500      	movs	r5, #0
 8000448:	e7a7      	b.n	800039a <HAL_GPIO_Init+0xea>
 800044a:	2501      	movs	r5, #1
 800044c:	e7a5      	b.n	800039a <HAL_GPIO_Init+0xea>
 800044e:	2502      	movs	r5, #2
 8000450:	e7a3      	b.n	800039a <HAL_GPIO_Init+0xea>
 8000452:	bf00      	nop
 8000454:	40010400 	.word	0x40010400
 8000458:	40021000 	.word	0x40021000
 800045c:	40010800 	.word	0x40010800
 8000460:	10210000 	.word	0x10210000
 8000464:	10310000 	.word	0x10310000
 8000468:	10320000 	.word	0x10320000
 800046c:	10110000 	.word	0x10110000
 8000470:	10220000 	.word	0x10220000

08000474 <HAL_GPIO_WritePin>:
 8000474:	b10a      	cbz	r2, 800047a <HAL_GPIO_WritePin+0x6>
 8000476:	6101      	str	r1, [r0, #16]
 8000478:	4770      	bx	lr
 800047a:	0409      	lsls	r1, r1, #16
 800047c:	e7fb      	b.n	8000476 <HAL_GPIO_WritePin+0x2>

0800047e <HAL_GPIO_TogglePin>:
 800047e:	68c3      	ldr	r3, [r0, #12]
 8000480:	420b      	tst	r3, r1
 8000482:	bf14      	ite	ne
 8000484:	6141      	strne	r1, [r0, #20]
 8000486:	6101      	streq	r1, [r0, #16]
 8000488:	4770      	bx	lr
	...

0800048c <HAL_GPIO_EXTI_IRQHandler>:
 800048c:	b508      	push	{r3, lr}
 800048e:	4b04      	ldr	r3, [pc, #16]	; (80004a0 <HAL_GPIO_EXTI_IRQHandler+0x14>)
 8000490:	6959      	ldr	r1, [r3, #20]
 8000492:	4201      	tst	r1, r0
 8000494:	d002      	beq.n	800049c <HAL_GPIO_EXTI_IRQHandler+0x10>
 8000496:	6158      	str	r0, [r3, #20]
 8000498:	f002 faf0 	bl	8002a7c <HAL_GPIO_EXTI_Callback>
 800049c:	bd08      	pop	{r3, pc}
 800049e:	bf00      	nop
 80004a0:	40010400 	.word	0x40010400

080004a4 <HAL_PCD_Init>:
 80004a4:	b5f0      	push	{r4, r5, r6, r7, lr}
 80004a6:	4604      	mov	r4, r0
 80004a8:	b087      	sub	sp, #28
 80004aa:	b310      	cbz	r0, 80004f2 <HAL_PCD_Init+0x4e>
 80004ac:	f890 3229 	ldrb.w	r3, [r0, #553]	; 0x229
 80004b0:	f003 02ff 	and.w	r2, r3, #255	; 0xff
 80004b4:	b91b      	cbnz	r3, 80004be <HAL_PCD_Init+0x1a>
 80004b6:	f880 2228 	strb.w	r2, [r0, #552]	; 0x228
 80004ba:	f002 fc8b 	bl	8002dd4 <HAL_PCD_MspInit>
 80004be:	4625      	mov	r5, r4
 80004c0:	2303      	movs	r3, #3
 80004c2:	466e      	mov	r6, sp
 80004c4:	f855 0b10 	ldr.w	r0, [r5], #16
 80004c8:	f884 3229 	strb.w	r3, [r4, #553]	; 0x229
 80004cc:	f001 f888 	bl	80015e0 <USB_DisableGlobalInt>
 80004d0:	cd0f      	ldmia	r5!, {r0, r1, r2, r3}
 80004d2:	c60f      	stmia	r6!, {r0, r1, r2, r3}
 80004d4:	682b      	ldr	r3, [r5, #0]
 80004d6:	4625      	mov	r5, r4
 80004d8:	6033      	str	r3, [r6, #0]
 80004da:	1d27      	adds	r7, r4, #4
 80004dc:	e897 000e 	ldmia.w	r7, {r1, r2, r3}
 80004e0:	f855 0b10 	ldr.w	r0, [r5], #16
 80004e4:	f001 f86c 	bl	80015c0 <USB_CoreInit>
 80004e8:	4606      	mov	r6, r0
 80004ea:	b120      	cbz	r0, 80004f6 <HAL_PCD_Init+0x52>
 80004ec:	2302      	movs	r3, #2
 80004ee:	f884 3229 	strb.w	r3, [r4, #553]	; 0x229
 80004f2:	2501      	movs	r5, #1
 80004f4:	e048      	b.n	8000588 <HAL_PCD_Init+0xe4>
 80004f6:	4601      	mov	r1, r0
 80004f8:	6820      	ldr	r0, [r4, #0]
 80004fa:	f001 f87b 	bl	80015f4 <USB_SetCurrentMode>
 80004fe:	4630      	mov	r0, r6
 8000500:	f04f 0e01 	mov.w	lr, #1
 8000504:	6861      	ldr	r1, [r4, #4]
 8000506:	b2c3      	uxtb	r3, r0
 8000508:	4299      	cmp	r1, r3
 800050a:	f100 0001 	add.w	r0, r0, #1
 800050e:	d817      	bhi.n	8000540 <HAL_PCD_Init+0x9c>
 8000510:	2200      	movs	r2, #0
 8000512:	4610      	mov	r0, r2
 8000514:	b2d3      	uxtb	r3, r2
 8000516:	4299      	cmp	r1, r3
 8000518:	f102 0201 	add.w	r2, r2, #1
 800051c:	d81d      	bhi.n	800055a <HAL_PCD_Init+0xb6>
 800051e:	466e      	mov	r6, sp
 8000520:	cd0f      	ldmia	r5!, {r0, r1, r2, r3}
 8000522:	c60f      	stmia	r6!, {r0, r1, r2, r3}
 8000524:	682b      	ldr	r3, [r5, #0]
 8000526:	6033      	str	r3, [r6, #0]
 8000528:	e897 000e 	ldmia.w	r7, {r1, r2, r3}
 800052c:	6820      	ldr	r0, [r4, #0]
 800052e:	f001 f863 	bl	80015f8 <USB_DevInit>
 8000532:	2301      	movs	r3, #1
 8000534:	4605      	mov	r5, r0
 8000536:	b300      	cbz	r0, 800057a <HAL_PCD_Init+0xd6>
 8000538:	2202      	movs	r2, #2
 800053a:	f884 2229 	strb.w	r2, [r4, #553]	; 0x229
 800053e:	e7d8      	b.n	80004f2 <HAL_PCD_Init+0x4e>
 8000540:	eb04 1243 	add.w	r2, r4, r3, lsl #5
 8000544:	f882 e029 	strb.w	lr, [r2, #41]	; 0x29
 8000548:	f882 3028 	strb.w	r3, [r2, #40]	; 0x28
 800054c:	86d3      	strh	r3, [r2, #54]	; 0x36
 800054e:	f882 602b 	strb.w	r6, [r2, #43]	; 0x2b
 8000552:	6396      	str	r6, [r2, #56]	; 0x38
 8000554:	63d6      	str	r6, [r2, #60]	; 0x3c
 8000556:	6416      	str	r6, [r2, #64]	; 0x40
 8000558:	e7d5      	b.n	8000506 <HAL_PCD_Init+0x62>
 800055a:	eb04 1643 	add.w	r6, r4, r3, lsl #5
 800055e:	f886 3128 	strb.w	r3, [r6, #296]	; 0x128
 8000562:	330a      	adds	r3, #10
 8000564:	015b      	lsls	r3, r3, #5
 8000566:	f886 0129 	strb.w	r0, [r6, #297]	; 0x129
 800056a:	f886 012b 	strb.w	r0, [r6, #299]	; 0x12b
 800056e:	f8c6 0138 	str.w	r0, [r6, #312]	; 0x138
 8000572:	f8c6 013c 	str.w	r0, [r6, #316]	; 0x13c
 8000576:	50e0      	str	r0, [r4, r3]
 8000578:	e7cc      	b.n	8000514 <HAL_PCD_Init+0x70>
 800057a:	f884 0024 	strb.w	r0, [r4, #36]	; 0x24
 800057e:	f884 3229 	strb.w	r3, [r4, #553]	; 0x229
 8000582:	6820      	ldr	r0, [r4, #0]
 8000584:	f001 fb1e 	bl	8001bc4 <USB_DevDisconnect>
 8000588:	4628      	mov	r0, r5
 800058a:	b007      	add	sp, #28
 800058c:	bdf0      	pop	{r4, r5, r6, r7, pc}

0800058e <HAL_PCD_Start>:
 800058e:	f890 3228 	ldrb.w	r3, [r0, #552]	; 0x228
 8000592:	b510      	push	{r4, lr}
 8000594:	2b01      	cmp	r3, #1
 8000596:	4604      	mov	r4, r0
 8000598:	d00e      	beq.n	80005b8 <HAL_PCD_Start+0x2a>
 800059a:	2101      	movs	r1, #1
 800059c:	f880 1228 	strb.w	r1, [r0, #552]	; 0x228
 80005a0:	f002 fd41 	bl	8003026 <HAL_PCDEx_SetConnectionState>
 80005a4:	6820      	ldr	r0, [r4, #0]
 80005a6:	f001 fb0b 	bl	8001bc0 <USB_DevConnect>
 80005aa:	6820      	ldr	r0, [r4, #0]
 80005ac:	f001 f80f 	bl	80015ce <USB_EnableGlobalInt>
 80005b0:	2000      	movs	r0, #0
 80005b2:	f884 0228 	strb.w	r0, [r4, #552]	; 0x228
 80005b6:	bd10      	pop	{r4, pc}
 80005b8:	2002      	movs	r0, #2
 80005ba:	bd10      	pop	{r4, pc}

080005bc <HAL_PCD_SetAddress>:
 80005bc:	f890 2228 	ldrb.w	r2, [r0, #552]	; 0x228
 80005c0:	b510      	push	{r4, lr}
 80005c2:	2a01      	cmp	r2, #1
 80005c4:	4604      	mov	r4, r0
 80005c6:	d00b      	beq.n	80005e0 <HAL_PCD_SetAddress+0x24>
 80005c8:	2201      	movs	r2, #1
 80005ca:	f880 2228 	strb.w	r2, [r0, #552]	; 0x228
 80005ce:	f884 1024 	strb.w	r1, [r4, #36]	; 0x24
 80005d2:	6800      	ldr	r0, [r0, #0]
 80005d4:	f001 faee 	bl	8001bb4 <USB_SetDevAddress>
 80005d8:	2000      	movs	r0, #0
 80005da:	f884 0228 	strb.w	r0, [r4, #552]	; 0x228
 80005de:	bd10      	pop	{r4, pc}
 80005e0:	2002      	movs	r0, #2
 80005e2:	bd10      	pop	{r4, pc}

080005e4 <HAL_PCD_EP_Open>:
 80005e4:	b570      	push	{r4, r5, r6, lr}
 80005e6:	f011 0f80 	tst.w	r1, #128	; 0x80
 80005ea:	4604      	mov	r4, r0
 80005ec:	f001 0007 	and.w	r0, r1, #7
 80005f0:	ea4f 1540 	mov.w	r5, r0, lsl #5
 80005f4:	d01f      	beq.n	8000636 <HAL_PCD_EP_Open+0x52>
 80005f6:	2601      	movs	r6, #1
 80005f8:	f105 0128 	add.w	r1, r5, #40	; 0x28
 80005fc:	4425      	add	r5, r4
 80005fe:	4421      	add	r1, r4
 8000600:	f885 6029 	strb.w	r6, [r5, #41]	; 0x29
 8000604:	610a      	str	r2, [r1, #16]
 8000606:	784a      	ldrb	r2, [r1, #1]
 8000608:	b2c0      	uxtb	r0, r0
 800060a:	7008      	strb	r0, [r1, #0]
 800060c:	70cb      	strb	r3, [r1, #3]
 800060e:	b102      	cbz	r2, 8000612 <HAL_PCD_EP_Open+0x2e>
 8000610:	81c8      	strh	r0, [r1, #14]
 8000612:	2b02      	cmp	r3, #2
 8000614:	bf04      	itt	eq
 8000616:	2300      	moveq	r3, #0
 8000618:	710b      	strbeq	r3, [r1, #4]
 800061a:	f894 3228 	ldrb.w	r3, [r4, #552]	; 0x228
 800061e:	2b01      	cmp	r3, #1
 8000620:	d011      	beq.n	8000646 <HAL_PCD_EP_Open+0x62>
 8000622:	2301      	movs	r3, #1
 8000624:	6820      	ldr	r0, [r4, #0]
 8000626:	f884 3228 	strb.w	r3, [r4, #552]	; 0x228
 800062a:	f001 f801 	bl	8001630 <USB_ActivateEndpoint>
 800062e:	2000      	movs	r0, #0
 8000630:	f884 0228 	strb.w	r0, [r4, #552]	; 0x228
 8000634:	bd70      	pop	{r4, r5, r6, pc}
 8000636:	2600      	movs	r6, #0
 8000638:	f505 7194 	add.w	r1, r5, #296	; 0x128
 800063c:	4425      	add	r5, r4
 800063e:	4421      	add	r1, r4
 8000640:	f885 6129 	strb.w	r6, [r5, #297]	; 0x129
 8000644:	e7de      	b.n	8000604 <HAL_PCD_EP_Open+0x20>
 8000646:	2002      	movs	r0, #2
 8000648:	bd70      	pop	{r4, r5, r6, pc}

0800064a <HAL_PCD_EP_Close>:
 800064a:	f001 0307 	and.w	r3, r1, #7
 800064e:	f011 0f80 	tst.w	r1, #128	; 0x80
 8000652:	b510      	push	{r4, lr}
 8000654:	ea4f 1243 	mov.w	r2, r3, lsl #5
 8000658:	4604      	mov	r4, r0
 800065a:	d015      	beq.n	8000688 <HAL_PCD_EP_Close+0x3e>
 800065c:	f102 0128 	add.w	r1, r2, #40	; 0x28
 8000660:	4401      	add	r1, r0
 8000662:	4402      	add	r2, r0
 8000664:	2001      	movs	r0, #1
 8000666:	f882 0029 	strb.w	r0, [r2, #41]	; 0x29
 800066a:	700b      	strb	r3, [r1, #0]
 800066c:	f894 3228 	ldrb.w	r3, [r4, #552]	; 0x228
 8000670:	2b01      	cmp	r3, #1
 8000672:	d011      	beq.n	8000698 <HAL_PCD_EP_Close+0x4e>
 8000674:	2301      	movs	r3, #1
 8000676:	6820      	ldr	r0, [r4, #0]
 8000678:	f884 3228 	strb.w	r3, [r4, #552]	; 0x228
 800067c:	f001 f950 	bl	8001920 <USB_DeactivateEndpoint>
 8000680:	2000      	movs	r0, #0
 8000682:	f884 0228 	strb.w	r0, [r4, #552]	; 0x228
 8000686:	bd10      	pop	{r4, pc}
 8000688:	f502 7194 	add.w	r1, r2, #296	; 0x128
 800068c:	4401      	add	r1, r0
 800068e:	4402      	add	r2, r0
 8000690:	2000      	movs	r0, #0
 8000692:	f882 0129 	strb.w	r0, [r2, #297]	; 0x129
 8000696:	e7e8      	b.n	800066a <HAL_PCD_EP_Close+0x20>
 8000698:	2002      	movs	r0, #2
 800069a:	bd10      	pop	{r4, pc}

0800069c <HAL_PCD_EP_Receive>:
 800069c:	b570      	push	{r4, r5, r6, lr}
 800069e:	2600      	movs	r6, #0
 80006a0:	f001 0107 	and.w	r1, r1, #7
 80006a4:	014d      	lsls	r5, r1, #5
 80006a6:	1944      	adds	r4, r0, r5
 80006a8:	f884 1128 	strb.w	r1, [r4, #296]	; 0x128
 80006ac:	f505 7194 	add.w	r1, r5, #296	; 0x128
 80006b0:	4401      	add	r1, r0
 80006b2:	f8c4 213c 	str.w	r2, [r4, #316]	; 0x13c
 80006b6:	f8c4 3140 	str.w	r3, [r4, #320]	; 0x140
 80006ba:	f8c4 6144 	str.w	r6, [r4, #324]	; 0x144
 80006be:	f884 6129 	strb.w	r6, [r4, #297]	; 0x129
 80006c2:	6800      	ldr	r0, [r0, #0]
 80006c4:	f001 fa96 	bl	8001bf4 <USB_EPStartXfer>
 80006c8:	4630      	mov	r0, r6
 80006ca:	bd70      	pop	{r4, r5, r6, pc}

080006cc <HAL_PCD_EP_GetRxCount>:
 80006cc:	f001 0107 	and.w	r1, r1, #7
 80006d0:	eb00 1141 	add.w	r1, r0, r1, lsl #5
 80006d4:	f8d1 0144 	ldr.w	r0, [r1, #324]	; 0x144
 80006d8:	4770      	bx	lr

080006da <HAL_PCD_EP_Transmit>:
 80006da:	f001 0107 	and.w	r1, r1, #7
 80006de:	b570      	push	{r4, r5, r6, lr}
 80006e0:	014d      	lsls	r5, r1, #5
 80006e2:	1944      	adds	r4, r0, r5
 80006e4:	6423      	str	r3, [r4, #64]	; 0x40
 80006e6:	2600      	movs	r6, #0
 80006e8:	2301      	movs	r3, #1
 80006ea:	f884 1028 	strb.w	r1, [r4, #40]	; 0x28
 80006ee:	f105 0128 	add.w	r1, r5, #40	; 0x28
 80006f2:	4401      	add	r1, r0
 80006f4:	63e2      	str	r2, [r4, #60]	; 0x3c
 80006f6:	6466      	str	r6, [r4, #68]	; 0x44
 80006f8:	f884 3029 	strb.w	r3, [r4, #41]	; 0x29
 80006fc:	6800      	ldr	r0, [r0, #0]
 80006fe:	f001 fa79 	bl	8001bf4 <USB_EPStartXfer>
 8000702:	4630      	mov	r0, r6
 8000704:	bd70      	pop	{r4, r5, r6, pc}
	...

08000708 <HAL_PCD_IRQHandler>:
 8000708:	e92d 4ff8 	stmdb	sp!, {r3, r4, r5, r6, r7, r8, r9, sl, fp, lr}
 800070c:	4604      	mov	r4, r0
 800070e:	6800      	ldr	r0, [r0, #0]
 8000710:	f001 fa5a 	bl	8001bc8 <USB_ReadInterrupts>
 8000714:	0402      	lsls	r2, r0, #16
 8000716:	f100 8210 	bmi.w	8000b3a <HAL_PCD_IRQHandler+0x432>
 800071a:	6820      	ldr	r0, [r4, #0]
 800071c:	f001 fa54 	bl	8001bc8 <USB_ReadInterrupts>
 8000720:	0543      	lsls	r3, r0, #21
 8000722:	d50f      	bpl.n	8000744 <HAL_PCD_IRQHandler+0x3c>
 8000724:	6822      	ldr	r2, [r4, #0]
 8000726:	4620      	mov	r0, r4
 8000728:	f8b2 3044 	ldrh.w	r3, [r2, #68]	; 0x44
 800072c:	f423 6380 	bic.w	r3, r3, #1024	; 0x400
 8000730:	041b      	lsls	r3, r3, #16
 8000732:	0c1b      	lsrs	r3, r3, #16
 8000734:	f8a2 3044 	strh.w	r3, [r2, #68]	; 0x44
 8000738:	f002 fb83 	bl	8002e42 <HAL_PCD_ResetCallback>
 800073c:	2100      	movs	r1, #0
 800073e:	4620      	mov	r0, r4
 8000740:	f7ff ff3c 	bl	80005bc <HAL_PCD_SetAddress>
 8000744:	6820      	ldr	r0, [r4, #0]
 8000746:	f001 fa3f 	bl	8001bc8 <USB_ReadInterrupts>
 800074a:	0447      	lsls	r7, r0, #17
 800074c:	d508      	bpl.n	8000760 <HAL_PCD_IRQHandler+0x58>
 800074e:	6822      	ldr	r2, [r4, #0]
 8000750:	f8b2 3044 	ldrh.w	r3, [r2, #68]	; 0x44
 8000754:	f423 4380 	bic.w	r3, r3, #16384	; 0x4000
 8000758:	041b      	lsls	r3, r3, #16
 800075a:	0c1b      	lsrs	r3, r3, #16
 800075c:	f8a2 3044 	strh.w	r3, [r2, #68]	; 0x44
 8000760:	6820      	ldr	r0, [r4, #0]
 8000762:	f001 fa31 	bl	8001bc8 <USB_ReadInterrupts>
 8000766:	0486      	lsls	r6, r0, #18
 8000768:	d508      	bpl.n	800077c <HAL_PCD_IRQHandler+0x74>
 800076a:	6822      	ldr	r2, [r4, #0]
 800076c:	f8b2 3044 	ldrh.w	r3, [r2, #68]	; 0x44
 8000770:	f423 5300 	bic.w	r3, r3, #8192	; 0x2000
 8000774:	041b      	lsls	r3, r3, #16
 8000776:	0c1b      	lsrs	r3, r3, #16
 8000778:	f8a2 3044 	strh.w	r3, [r2, #68]	; 0x44
 800077c:	6820      	ldr	r0, [r4, #0]
 800077e:	f001 fa23 	bl	8001bc8 <USB_ReadInterrupts>
 8000782:	04c5      	lsls	r5, r0, #19
 8000784:	d51c      	bpl.n	80007c0 <HAL_PCD_IRQHandler+0xb8>
 8000786:	6822      	ldr	r2, [r4, #0]
 8000788:	4620      	mov	r0, r4
 800078a:	f8b2 3040 	ldrh.w	r3, [r2, #64]	; 0x40
 800078e:	f023 0304 	bic.w	r3, r3, #4
 8000792:	041b      	lsls	r3, r3, #16
 8000794:	0c1b      	lsrs	r3, r3, #16
 8000796:	f8a2 3040 	strh.w	r3, [r2, #64]	; 0x40
 800079a:	f8b2 3040 	ldrh.w	r3, [r2, #64]	; 0x40
 800079e:	f023 0308 	bic.w	r3, r3, #8
 80007a2:	041b      	lsls	r3, r3, #16
 80007a4:	0c1b      	lsrs	r3, r3, #16
 80007a6:	f8a2 3040 	strh.w	r3, [r2, #64]	; 0x40
 80007aa:	f002 fb6d 	bl	8002e88 <HAL_PCD_ResumeCallback>
 80007ae:	6822      	ldr	r2, [r4, #0]
 80007b0:	f8b2 3044 	ldrh.w	r3, [r2, #68]	; 0x44
 80007b4:	f423 5380 	bic.w	r3, r3, #4096	; 0x1000
 80007b8:	041b      	lsls	r3, r3, #16
 80007ba:	0c1b      	lsrs	r3, r3, #16
 80007bc:	f8a2 3044 	strh.w	r3, [r2, #68]	; 0x44
 80007c0:	6820      	ldr	r0, [r4, #0]
 80007c2:	f001 fa01 	bl	8001bc8 <USB_ReadInterrupts>
 80007c6:	0500      	lsls	r0, r0, #20
 80007c8:	d526      	bpl.n	8000818 <HAL_PCD_IRQHandler+0x110>
 80007ca:	6820      	ldr	r0, [r4, #0]
 80007cc:	f8b0 3040 	ldrh.w	r3, [r0, #64]	; 0x40
 80007d0:	b29b      	uxth	r3, r3
 80007d2:	f043 0308 	orr.w	r3, r3, #8
 80007d6:	f8a0 3040 	strh.w	r3, [r0, #64]	; 0x40
 80007da:	f8b0 3044 	ldrh.w	r3, [r0, #68]	; 0x44
 80007de:	f423 6300 	bic.w	r3, r3, #2048	; 0x800
 80007e2:	041b      	lsls	r3, r3, #16
 80007e4:	0c1b      	lsrs	r3, r3, #16
 80007e6:	f8a0 3044 	strh.w	r3, [r0, #68]	; 0x44
 80007ea:	f8b0 3040 	ldrh.w	r3, [r0, #64]	; 0x40
 80007ee:	b29b      	uxth	r3, r3
 80007f0:	f043 0304 	orr.w	r3, r3, #4
 80007f4:	f8a0 3040 	strh.w	r3, [r0, #64]	; 0x40
 80007f8:	f001 f9e6 	bl	8001bc8 <USB_ReadInterrupts>
 80007fc:	04c1      	lsls	r1, r0, #19
 80007fe:	d508      	bpl.n	8000812 <HAL_PCD_IRQHandler+0x10a>
 8000800:	6822      	ldr	r2, [r4, #0]
 8000802:	f8b2 3044 	ldrh.w	r3, [r2, #68]	; 0x44
 8000806:	f423 5380 	bic.w	r3, r3, #4096	; 0x1000
 800080a:	041b      	lsls	r3, r3, #16
 800080c:	0c1b      	lsrs	r3, r3, #16
 800080e:	f8a2 3044 	strh.w	r3, [r2, #68]	; 0x44
 8000812:	4620      	mov	r0, r4
 8000814:	f002 fb28 	bl	8002e68 <HAL_PCD_SuspendCallback>
 8000818:	6820      	ldr	r0, [r4, #0]
 800081a:	f001 f9d5 	bl	8001bc8 <USB_ReadInterrupts>
 800081e:	0582      	lsls	r2, r0, #22
 8000820:	d50b      	bpl.n	800083a <HAL_PCD_IRQHandler+0x132>
 8000822:	6822      	ldr	r2, [r4, #0]
 8000824:	4620      	mov	r0, r4
 8000826:	f8b2 3044 	ldrh.w	r3, [r2, #68]	; 0x44
 800082a:	f423 7300 	bic.w	r3, r3, #512	; 0x200
 800082e:	041b      	lsls	r3, r3, #16
 8000830:	0c1b      	lsrs	r3, r3, #16
 8000832:	f8a2 3044 	strh.w	r3, [r2, #68]	; 0x44
 8000836:	f002 fb00 	bl	8002e3a <HAL_PCD_SOFCallback>
 800083a:	6820      	ldr	r0, [r4, #0]
 800083c:	f001 f9c4 	bl	8001bc8 <USB_ReadInterrupts>
 8000840:	05c3      	lsls	r3, r0, #23
 8000842:	d508      	bpl.n	8000856 <HAL_PCD_IRQHandler+0x14e>
 8000844:	6822      	ldr	r2, [r4, #0]
 8000846:	f8b2 3044 	ldrh.w	r3, [r2, #68]	; 0x44
 800084a:	f423 7380 	bic.w	r3, r3, #256	; 0x100
 800084e:	041b      	lsls	r3, r3, #16
 8000850:	0c1b      	lsrs	r3, r3, #16
 8000852:	f8a2 3044 	strh.w	r3, [r2, #68]	; 0x44
 8000856:	e8bd 8ff8 	ldmia.w	sp!, {r3, r4, r5, r6, r7, r8, r9, sl, fp, pc}
 800085a:	f8b0 1044 	ldrh.w	r1, [r0, #68]	; 0x44
 800085e:	b289      	uxth	r1, r1
 8000860:	f011 060f 	ands.w	r6, r1, #15
 8000864:	f040 80b7 	bne.w	80009d6 <HAL_PCD_IRQHandler+0x2ce>
 8000868:	8803      	ldrh	r3, [r0, #0]
 800086a:	f011 0110 	ands.w	r1, r1, #16
 800086e:	b29b      	uxth	r3, r3
 8000870:	d12c      	bne.n	80008cc <HAL_PCD_IRQHandler+0x1c4>
 8000872:	ea03 0309 	and.w	r3, r3, r9
 8000876:	f443 4300 	orr.w	r3, r3, #32768	; 0x8000
 800087a:	8003      	strh	r3, [r0, #0]
 800087c:	f8b0 3050 	ldrh.w	r3, [r0, #80]	; 0x50
 8000880:	f894 2028 	ldrb.w	r2, [r4, #40]	; 0x28
 8000884:	b29b      	uxth	r3, r3
 8000886:	eb03 03c2 	add.w	r3, r3, r2, lsl #3
 800088a:	eb00 0043 	add.w	r0, r0, r3, lsl #1
 800088e:	f8b0 3404 	ldrh.w	r3, [r0, #1028]	; 0x404
 8000892:	6be2      	ldr	r2, [r4, #60]	; 0x3c
 8000894:	f3c3 0309 	ubfx	r3, r3, #0, #10
 8000898:	6463      	str	r3, [r4, #68]	; 0x44
 800089a:	4413      	add	r3, r2
 800089c:	63e3      	str	r3, [r4, #60]	; 0x3c
 800089e:	4620      	mov	r0, r4
 80008a0:	f002 fac4 	bl	8002e2c <HAL_PCD_DataInStageCallback>
 80008a4:	f894 3024 	ldrb.w	r3, [r4, #36]	; 0x24
 80008a8:	b153      	cbz	r3, 80008c0 <HAL_PCD_IRQHandler+0x1b8>
 80008aa:	6c22      	ldr	r2, [r4, #64]	; 0x40
 80008ac:	b942      	cbnz	r2, 80008c0 <HAL_PCD_IRQHandler+0x1b8>
 80008ae:	f894 3024 	ldrb.w	r3, [r4, #36]	; 0x24
 80008b2:	6821      	ldr	r1, [r4, #0]
 80008b4:	f043 0380 	orr.w	r3, r3, #128	; 0x80
 80008b8:	f8a1 304c 	strh.w	r3, [r1, #76]	; 0x4c
 80008bc:	f884 2024 	strb.w	r2, [r4, #36]	; 0x24
 80008c0:	6820      	ldr	r0, [r4, #0]
 80008c2:	f8b0 3044 	ldrh.w	r3, [r0, #68]	; 0x44
 80008c6:	041b      	lsls	r3, r3, #16
 80008c8:	d4c7      	bmi.n	800085a <HAL_PCD_IRQHandler+0x152>
 80008ca:	e726      	b.n	800071a <HAL_PCD_IRQHandler+0x12>
 80008cc:	f413 6500 	ands.w	r5, r3, #2048	; 0x800
 80008d0:	d021      	beq.n	8000916 <HAL_PCD_IRQHandler+0x20e>
 80008d2:	f8b0 3050 	ldrh.w	r3, [r0, #80]	; 0x50
 80008d6:	f894 2128 	ldrb.w	r2, [r4, #296]	; 0x128
 80008da:	b29b      	uxth	r3, r3
 80008dc:	eb03 03c2 	add.w	r3, r3, r2, lsl #3
 80008e0:	eb00 0343 	add.w	r3, r0, r3, lsl #1
 80008e4:	f8b3 340c 	ldrh.w	r3, [r3, #1036]	; 0x40c
 80008e8:	f8b4 212e 	ldrh.w	r2, [r4, #302]	; 0x12e
 80008ec:	f3c3 0309 	ubfx	r3, r3, #0, #10
 80008f0:	f8c4 3144 	str.w	r3, [r4, #324]	; 0x144
 80008f4:	f504 710c 	add.w	r1, r4, #560	; 0x230
 80008f8:	f001 fa64 	bl	8001dc4 <USB_ReadPMA>
 80008fc:	6822      	ldr	r2, [r4, #0]
 80008fe:	4620      	mov	r0, r4
 8000900:	8813      	ldrh	r3, [r2, #0]
 8000902:	f023 0370 	bic.w	r3, r3, #112	; 0x70
 8000906:	051b      	lsls	r3, r3, #20
 8000908:	0d1b      	lsrs	r3, r3, #20
 800090a:	f043 0380 	orr.w	r3, r3, #128	; 0x80
 800090e:	8013      	strh	r3, [r2, #0]
 8000910:	f002 fa7e 	bl	8002e10 <HAL_PCD_SetupStageCallback>
 8000914:	e7d4      	b.n	80008c0 <HAL_PCD_IRQHandler+0x1b8>
 8000916:	041f      	lsls	r7, r3, #16
 8000918:	d5d2      	bpl.n	80008c0 <HAL_PCD_IRQHandler+0x1b8>
 800091a:	8803      	ldrh	r3, [r0, #0]
 800091c:	f023 0370 	bic.w	r3, r3, #112	; 0x70
 8000920:	051b      	lsls	r3, r3, #20
 8000922:	0d1b      	lsrs	r3, r3, #20
 8000924:	f043 0380 	orr.w	r3, r3, #128	; 0x80
 8000928:	8003      	strh	r3, [r0, #0]
 800092a:	f8b0 3050 	ldrh.w	r3, [r0, #80]	; 0x50
 800092e:	f894 2128 	ldrb.w	r2, [r4, #296]	; 0x128
 8000932:	b29b      	uxth	r3, r3
 8000934:	eb03 03c2 	add.w	r3, r3, r2, lsl #3
 8000938:	eb00 0343 	add.w	r3, r0, r3, lsl #1
 800093c:	f8b3 340c 	ldrh.w	r3, [r3, #1036]	; 0x40c
 8000940:	f3c3 0309 	ubfx	r3, r3, #0, #10
 8000944:	f8c4 3144 	str.w	r3, [r4, #324]	; 0x144
 8000948:	b18b      	cbz	r3, 800096e <HAL_PCD_IRQHandler+0x266>
 800094a:	f8d4 113c 	ldr.w	r1, [r4, #316]	; 0x13c
 800094e:	b171      	cbz	r1, 800096e <HAL_PCD_IRQHandler+0x266>
 8000950:	f8b4 212e 	ldrh.w	r2, [r4, #302]	; 0x12e
 8000954:	f001 fa36 	bl	8001dc4 <USB_ReadPMA>
 8000958:	f8d4 313c 	ldr.w	r3, [r4, #316]	; 0x13c
 800095c:	f8d4 2144 	ldr.w	r2, [r4, #324]	; 0x144
 8000960:	4629      	mov	r1, r5
 8000962:	4413      	add	r3, r2
 8000964:	f8c4 313c 	str.w	r3, [r4, #316]	; 0x13c
 8000968:	4620      	mov	r0, r4
 800096a:	f002 fa57 	bl	8002e1c <HAL_PCD_DataOutStageCallback>
 800096e:	6821      	ldr	r1, [r4, #0]
 8000970:	f8d4 5138 	ldr.w	r5, [r4, #312]	; 0x138
 8000974:	f8b1 3050 	ldrh.w	r3, [r1, #80]	; 0x50
 8000978:	f201 400c 	addw	r0, r1, #1036	; 0x40c
 800097c:	b29b      	uxth	r3, r3
 800097e:	b9cd      	cbnz	r5, 80009b4 <HAL_PCD_IRQHandler+0x2ac>
 8000980:	5ac2      	ldrh	r2, [r0, r3]
 8000982:	f422 42f8 	bic.w	r2, r2, #31744	; 0x7c00
 8000986:	0412      	lsls	r2, r2, #16
 8000988:	0c12      	lsrs	r2, r2, #16
 800098a:	52c2      	strh	r2, [r0, r3]
 800098c:	5ac2      	ldrh	r2, [r0, r3]
 800098e:	b292      	uxth	r2, r2
 8000990:	f442 4200 	orr.w	r2, r2, #32768	; 0x8000
 8000994:	52c2      	strh	r2, [r0, r3]
 8000996:	880b      	ldrh	r3, [r1, #0]
 8000998:	f423 4380 	bic.w	r3, r3, #16384	; 0x4000
 800099c:	f023 0370 	bic.w	r3, r3, #112	; 0x70
 80009a0:	041b      	lsls	r3, r3, #16
 80009a2:	0c1b      	lsrs	r3, r3, #16
 80009a4:	f483 5340 	eor.w	r3, r3, #12288	; 0x3000
 80009a8:	f443 4300 	orr.w	r3, r3, #32768	; 0x8000
 80009ac:	f043 0380 	orr.w	r3, r3, #128	; 0x80
 80009b0:	800b      	strh	r3, [r1, #0]
 80009b2:	e785      	b.n	80008c0 <HAL_PCD_IRQHandler+0x1b8>
 80009b4:	2d3e      	cmp	r5, #62	; 0x3e
 80009b6:	d806      	bhi.n	80009c6 <HAL_PCD_IRQHandler+0x2be>
 80009b8:	086a      	lsrs	r2, r5, #1
 80009ba:	07ee      	lsls	r6, r5, #31
 80009bc:	bf48      	it	mi
 80009be:	3201      	addmi	r2, #1
 80009c0:	0292      	lsls	r2, r2, #10
 80009c2:	b292      	uxth	r2, r2
 80009c4:	e7e6      	b.n	8000994 <HAL_PCD_IRQHandler+0x28c>
 80009c6:	096a      	lsrs	r2, r5, #5
 80009c8:	06ed      	lsls	r5, r5, #27
 80009ca:	bf08      	it	eq
 80009cc:	f102 32ff 	addeq.w	r2, r2, #4294967295
 80009d0:	ea4a 2282 	orr.w	r2, sl, r2, lsl #10
 80009d4:	e7f5      	b.n	80009c2 <HAL_PCD_IRQHandler+0x2ba>
 80009d6:	f830 8026 	ldrh.w	r8, [r0, r6, lsl #2]
 80009da:	fa1f f888 	uxth.w	r8, r8
 80009de:	f418 4f00 	tst.w	r8, #32768	; 0x8000
 80009e2:	d03d      	beq.n	8000a60 <HAL_PCD_IRQHandler+0x358>
 80009e4:	f830 3026 	ldrh.w	r3, [r0, r6, lsl #2]
 80009e8:	0177      	lsls	r7, r6, #5
 80009ea:	f023 0370 	bic.w	r3, r3, #112	; 0x70
 80009ee:	051b      	lsls	r3, r3, #20
 80009f0:	0d1b      	lsrs	r3, r3, #20
 80009f2:	f043 0380 	orr.w	r3, r3, #128	; 0x80
 80009f6:	f820 3026 	strh.w	r3, [r0, r6, lsl #2]
 80009fa:	19e1      	adds	r1, r4, r7
 80009fc:	f891 3134 	ldrb.w	r3, [r1, #308]	; 0x134
 8000a00:	2b00      	cmp	r3, #0
 8000a02:	d158      	bne.n	8000ab6 <HAL_PCD_IRQHandler+0x3ae>
 8000a04:	f8b0 3050 	ldrh.w	r3, [r0, #80]	; 0x50
 8000a08:	f891 2128 	ldrb.w	r2, [r1, #296]	; 0x128
 8000a0c:	b29b      	uxth	r3, r3
 8000a0e:	3306      	adds	r3, #6
 8000a10:	eb03 03c2 	add.w	r3, r3, r2, lsl #3
 8000a14:	eb00 0343 	add.w	r3, r0, r3, lsl #1
 8000a18:	f8b3 5400 	ldrh.w	r5, [r3, #1024]	; 0x400
 8000a1c:	f3c5 0509 	ubfx	r5, r5, #0, #10
 8000a20:	b135      	cbz	r5, 8000a30 <HAL_PCD_IRQHandler+0x328>
 8000a22:	f8b1 212e 	ldrh.w	r2, [r1, #302]	; 0x12e
 8000a26:	462b      	mov	r3, r5
 8000a28:	f8d1 113c 	ldr.w	r1, [r1, #316]	; 0x13c
 8000a2c:	f001 f9ca 	bl	8001dc4 <USB_ReadPMA>
 8000a30:	19e1      	adds	r1, r4, r7
 8000a32:	f8d1 3144 	ldr.w	r3, [r1, #324]	; 0x144
 8000a36:	f8d1 213c 	ldr.w	r2, [r1, #316]	; 0x13c
 8000a3a:	442b      	add	r3, r5
 8000a3c:	f8c1 3144 	str.w	r3, [r1, #324]	; 0x144
 8000a40:	f8d1 3140 	ldr.w	r3, [r1, #320]	; 0x140
 8000a44:	442a      	add	r2, r5
 8000a46:	f8c1 213c 	str.w	r2, [r1, #316]	; 0x13c
 8000a4a:	b11b      	cbz	r3, 8000a54 <HAL_PCD_IRQHandler+0x34c>
 8000a4c:	f8d1 0138 	ldr.w	r0, [r1, #312]	; 0x138
 8000a50:	4285      	cmp	r5, r0
 8000a52:	d269      	bcs.n	8000b28 <HAL_PCD_IRQHandler+0x420>
 8000a54:	4427      	add	r7, r4
 8000a56:	f897 1128 	ldrb.w	r1, [r7, #296]	; 0x128
 8000a5a:	4620      	mov	r0, r4
 8000a5c:	f002 f9de 	bl	8002e1c <HAL_PCD_DataOutStageCallback>
 8000a60:	f018 0f80 	tst.w	r8, #128	; 0x80
 8000a64:	f43f af2c 	beq.w	80008c0 <HAL_PCD_IRQHandler+0x1b8>
 8000a68:	6821      	ldr	r1, [r4, #0]
 8000a6a:	4620      	mov	r0, r4
 8000a6c:	f831 2026 	ldrh.w	r2, [r1, r6, lsl #2]
 8000a70:	b292      	uxth	r2, r2
 8000a72:	ea02 0209 	and.w	r2, r2, r9
 8000a76:	f442 4200 	orr.w	r2, r2, #32768	; 0x8000
 8000a7a:	f821 2026 	strh.w	r2, [r1, r6, lsl #2]
 8000a7e:	f8b1 3050 	ldrh.w	r3, [r1, #80]	; 0x50
 8000a82:	eb04 1646 	add.w	r6, r4, r6, lsl #5
 8000a86:	f896 2028 	ldrb.w	r2, [r6, #40]	; 0x28
 8000a8a:	b29b      	uxth	r3, r3
 8000a8c:	3302      	adds	r3, #2
 8000a8e:	eb03 03c2 	add.w	r3, r3, r2, lsl #3
 8000a92:	eb01 0343 	add.w	r3, r1, r3, lsl #1
 8000a96:	f8b3 2400 	ldrh.w	r2, [r3, #1024]	; 0x400
 8000a9a:	6bf3      	ldr	r3, [r6, #60]	; 0x3c
 8000a9c:	f3c2 0209 	ubfx	r2, r2, #0, #10
 8000aa0:	6472      	str	r2, [r6, #68]	; 0x44
 8000aa2:	441a      	add	r2, r3
 8000aa4:	6c33      	ldr	r3, [r6, #64]	; 0x40
 8000aa6:	63f2      	str	r2, [r6, #60]	; 0x3c
 8000aa8:	f896 1028 	ldrb.w	r1, [r6, #40]	; 0x28
 8000aac:	2b00      	cmp	r3, #0
 8000aae:	d141      	bne.n	8000b34 <HAL_PCD_IRQHandler+0x42c>
 8000ab0:	f002 f9bc 	bl	8002e2c <HAL_PCD_DataInStageCallback>
 8000ab4:	e704      	b.n	80008c0 <HAL_PCD_IRQHandler+0x1b8>
 8000ab6:	f891 3128 	ldrb.w	r3, [r1, #296]	; 0x128
 8000aba:	f830 2023 	ldrh.w	r2, [r0, r3, lsl #2]
 8000abe:	00db      	lsls	r3, r3, #3
 8000ac0:	f412 4f80 	tst.w	r2, #16384	; 0x4000
 8000ac4:	f8b0 2050 	ldrh.w	r2, [r0, #80]	; 0x50
 8000ac8:	b292      	uxth	r2, r2
 8000aca:	d01f      	beq.n	8000b0c <HAL_PCD_IRQHandler+0x404>
 8000acc:	3202      	adds	r2, #2
 8000ace:	4413      	add	r3, r2
 8000ad0:	eb00 0343 	add.w	r3, r0, r3, lsl #1
 8000ad4:	f8b3 5400 	ldrh.w	r5, [r3, #1024]	; 0x400
 8000ad8:	f3c5 0509 	ubfx	r5, r5, #0, #10
 8000adc:	b135      	cbz	r5, 8000aec <HAL_PCD_IRQHandler+0x3e4>
 8000ade:	462b      	mov	r3, r5
 8000ae0:	f8b1 2130 	ldrh.w	r2, [r1, #304]	; 0x130
 8000ae4:	f8d1 113c 	ldr.w	r1, [r1, #316]	; 0x13c
 8000ae8:	f001 f96c 	bl	8001dc4 <USB_ReadPMA>
 8000aec:	19e3      	adds	r3, r4, r7
 8000aee:	f893 1128 	ldrb.w	r1, [r3, #296]	; 0x128
 8000af2:	6822      	ldr	r2, [r4, #0]
 8000af4:	f832 3021 	ldrh.w	r3, [r2, r1, lsl #2]
 8000af8:	b29b      	uxth	r3, r3
 8000afa:	ea03 030b 	and.w	r3, r3, fp
 8000afe:	f443 4300 	orr.w	r3, r3, #32768	; 0x8000
 8000b02:	f043 03c0 	orr.w	r3, r3, #192	; 0xc0
 8000b06:	f822 3021 	strh.w	r3, [r2, r1, lsl #2]
 8000b0a:	e791      	b.n	8000a30 <HAL_PCD_IRQHandler+0x328>
 8000b0c:	3206      	adds	r2, #6
 8000b0e:	4413      	add	r3, r2
 8000b10:	eb00 0343 	add.w	r3, r0, r3, lsl #1
 8000b14:	f8b3 5400 	ldrh.w	r5, [r3, #1024]	; 0x400
 8000b18:	f3c5 0509 	ubfx	r5, r5, #0, #10
 8000b1c:	2d00      	cmp	r5, #0
 8000b1e:	d0e5      	beq.n	8000aec <HAL_PCD_IRQHandler+0x3e4>
 8000b20:	462b      	mov	r3, r5
 8000b22:	f8b1 2132 	ldrh.w	r2, [r1, #306]	; 0x132
 8000b26:	e7dd      	b.n	8000ae4 <HAL_PCD_IRQHandler+0x3dc>
 8000b28:	f891 1128 	ldrb.w	r1, [r1, #296]	; 0x128
 8000b2c:	4620      	mov	r0, r4
 8000b2e:	f7ff fdb5 	bl	800069c <HAL_PCD_EP_Receive>
 8000b32:	e795      	b.n	8000a60 <HAL_PCD_IRQHandler+0x358>
 8000b34:	f7ff fdd1 	bl	80006da <HAL_PCD_EP_Transmit>
 8000b38:	e6c2      	b.n	80008c0 <HAL_PCD_IRQHandler+0x1b8>
 8000b3a:	f8df 900c 	ldr.w	r9, [pc, #12]	; 8000b48 <HAL_PCD_IRQHandler+0x440>
 8000b3e:	f8df a00c 	ldr.w	sl, [pc, #12]	; 8000b4c <HAL_PCD_IRQHandler+0x444>
 8000b42:	f8df b00c 	ldr.w	fp, [pc, #12]	; 8000b50 <HAL_PCD_IRQHandler+0x448>
 8000b46:	e6bb      	b.n	80008c0 <HAL_PCD_IRQHandler+0x1b8>
 8000b48:	ffff8f0f 	.word	0xffff8f0f
 8000b4c:	ffff8000 	.word	0xffff8000
 8000b50:	ffff8f8f 	.word	0xffff8f8f

08000b54 <HAL_PCD_EP_SetStall>:
 8000b54:	b538      	push	{r3, r4, r5, lr}
 8000b56:	6843      	ldr	r3, [r0, #4]
 8000b58:	f001 0507 	and.w	r5, r1, #7
 8000b5c:	429d      	cmp	r5, r3
 8000b5e:	4604      	mov	r4, r0
 8000b60:	d828      	bhi.n	8000bb4 <HAL_PCD_EP_SetStall+0x60>
 8000b62:	060b      	lsls	r3, r1, #24
 8000b64:	d51d      	bpl.n	8000ba2 <HAL_PCD_EP_SetStall+0x4e>
 8000b66:	2201      	movs	r2, #1
 8000b68:	016b      	lsls	r3, r5, #5
 8000b6a:	f103 0128 	add.w	r1, r3, #40	; 0x28
 8000b6e:	4403      	add	r3, r0
 8000b70:	4401      	add	r1, r0
 8000b72:	f883 2029 	strb.w	r2, [r3, #41]	; 0x29
 8000b76:	2301      	movs	r3, #1
 8000b78:	700d      	strb	r5, [r1, #0]
 8000b7a:	708b      	strb	r3, [r1, #2]
 8000b7c:	f894 2228 	ldrb.w	r2, [r4, #552]	; 0x228
 8000b80:	429a      	cmp	r2, r3
 8000b82:	d019      	beq.n	8000bb8 <HAL_PCD_EP_SetStall+0x64>
 8000b84:	f884 3228 	strb.w	r3, [r4, #552]	; 0x228
 8000b88:	6820      	ldr	r0, [r4, #0]
 8000b8a:	f000 ffa8 	bl	8001ade <USB_EPSetStall>
 8000b8e:	b925      	cbnz	r5, 8000b9a <HAL_PCD_EP_SetStall+0x46>
 8000b90:	f504 710c 	add.w	r1, r4, #560	; 0x230
 8000b94:	6820      	ldr	r0, [r4, #0]
 8000b96:	f001 f81b 	bl	8001bd0 <USB_EP0_OutStart>
 8000b9a:	2000      	movs	r0, #0
 8000b9c:	f884 0228 	strb.w	r0, [r4, #552]	; 0x228
 8000ba0:	bd38      	pop	{r3, r4, r5, pc}
 8000ba2:	2200      	movs	r2, #0
 8000ba4:	014b      	lsls	r3, r1, #5
 8000ba6:	f503 7194 	add.w	r1, r3, #296	; 0x128
 8000baa:	4403      	add	r3, r0
 8000bac:	4401      	add	r1, r0
 8000bae:	f883 2129 	strb.w	r2, [r3, #297]	; 0x129
 8000bb2:	e7e0      	b.n	8000b76 <HAL_PCD_EP_SetStall+0x22>
 8000bb4:	2001      	movs	r0, #1
 8000bb6:	bd38      	pop	{r3, r4, r5, pc}
 8000bb8:	2002      	movs	r0, #2
 8000bba:	bd38      	pop	{r3, r4, r5, pc}

08000bbc <HAL_PCD_EP_ClrStall>:
 8000bbc:	b538      	push	{r3, r4, r5, lr}
 8000bbe:	6843      	ldr	r3, [r0, #4]
 8000bc0:	f001 020f 	and.w	r2, r1, #15
 8000bc4:	429a      	cmp	r2, r3
 8000bc6:	4604      	mov	r4, r0
 8000bc8:	d826      	bhi.n	8000c18 <HAL_PCD_EP_ClrStall+0x5c>
 8000bca:	f001 0307 	and.w	r3, r1, #7
 8000bce:	f011 0f80 	tst.w	r1, #128	; 0x80
 8000bd2:	ea4f 1243 	mov.w	r2, r3, lsl #5
 8000bd6:	d017      	beq.n	8000c08 <HAL_PCD_EP_ClrStall+0x4c>
 8000bd8:	f102 0128 	add.w	r1, r2, #40	; 0x28
 8000bdc:	4401      	add	r1, r0
 8000bde:	4402      	add	r2, r0
 8000be0:	2001      	movs	r0, #1
 8000be2:	f882 0029 	strb.w	r0, [r2, #41]	; 0x29
 8000be6:	2500      	movs	r5, #0
 8000be8:	700b      	strb	r3, [r1, #0]
 8000bea:	708d      	strb	r5, [r1, #2]
 8000bec:	f894 3228 	ldrb.w	r3, [r4, #552]	; 0x228
 8000bf0:	2b01      	cmp	r3, #1
 8000bf2:	d013      	beq.n	8000c1c <HAL_PCD_EP_ClrStall+0x60>
 8000bf4:	2301      	movs	r3, #1
 8000bf6:	6820      	ldr	r0, [r4, #0]
 8000bf8:	f884 3228 	strb.w	r3, [r4, #552]	; 0x228
 8000bfc:	f000 ff8f 	bl	8001b1e <USB_EPClearStall>
 8000c00:	f884 5228 	strb.w	r5, [r4, #552]	; 0x228
 8000c04:	4628      	mov	r0, r5
 8000c06:	bd38      	pop	{r3, r4, r5, pc}
 8000c08:	f502 7194 	add.w	r1, r2, #296	; 0x128
 8000c0c:	4401      	add	r1, r0
 8000c0e:	4402      	add	r2, r0
 8000c10:	2000      	movs	r0, #0
 8000c12:	f882 0129 	strb.w	r0, [r2, #297]	; 0x129
 8000c16:	e7e6      	b.n	8000be6 <HAL_PCD_EP_ClrStall+0x2a>
 8000c18:	2001      	movs	r0, #1
 8000c1a:	bd38      	pop	{r3, r4, r5, pc}
 8000c1c:	2002      	movs	r0, #2
 8000c1e:	bd38      	pop	{r3, r4, r5, pc}

08000c20 <HAL_PCDEx_PMAConfig>:
 8000c20:	f011 0f80 	tst.w	r1, #128	; 0x80
 8000c24:	bf1b      	ittet	ne
 8000c26:	f001 0107 	andne.w	r1, r1, #7
 8000c2a:	eb00 1041 	addne.w	r0, r0, r1, lsl #5
 8000c2e:	eb00 1041 	addeq.w	r0, r0, r1, lsl #5
 8000c32:	3028      	addne	r0, #40	; 0x28
 8000c34:	bf08      	it	eq
 8000c36:	f500 7094 	addeq.w	r0, r0, #296	; 0x128
 8000c3a:	b91a      	cbnz	r2, 8000c44 <HAL_PCDEx_PMAConfig+0x24>
 8000c3c:	7302      	strb	r2, [r0, #12]
 8000c3e:	80c3      	strh	r3, [r0, #6]
 8000c40:	2000      	movs	r0, #0
 8000c42:	4770      	bx	lr
 8000c44:	2201      	movs	r2, #1
 8000c46:	8103      	strh	r3, [r0, #8]
 8000c48:	0c1b      	lsrs	r3, r3, #16
 8000c4a:	7302      	strb	r2, [r0, #12]
 8000c4c:	8143      	strh	r3, [r0, #10]
 8000c4e:	e7f7      	b.n	8000c40 <HAL_PCDEx_PMAConfig+0x20>

08000c50 <HAL_RCC_OscConfig>:
 8000c50:	e92d 41f3 	stmdb	sp!, {r0, r1, r4, r5, r6, r7, r8, lr}
 8000c54:	4605      	mov	r5, r0
 8000c56:	b908      	cbnz	r0, 8000c5c <HAL_RCC_OscConfig+0xc>
 8000c58:	2001      	movs	r0, #1
 8000c5a:	e03c      	b.n	8000cd6 <HAL_RCC_OscConfig+0x86>
 8000c5c:	6803      	ldr	r3, [r0, #0]
 8000c5e:	07db      	lsls	r3, r3, #31
 8000c60:	d410      	bmi.n	8000c84 <HAL_RCC_OscConfig+0x34>
 8000c62:	682b      	ldr	r3, [r5, #0]
 8000c64:	079f      	lsls	r7, r3, #30
 8000c66:	d45d      	bmi.n	8000d24 <HAL_RCC_OscConfig+0xd4>
 8000c68:	682b      	ldr	r3, [r5, #0]
 8000c6a:	0719      	lsls	r1, r3, #28
 8000c6c:	f100 8094 	bmi.w	8000d98 <HAL_RCC_OscConfig+0x148>
 8000c70:	682b      	ldr	r3, [r5, #0]
 8000c72:	075a      	lsls	r2, r3, #29
 8000c74:	f100 80be 	bmi.w	8000df4 <HAL_RCC_OscConfig+0x1a4>
 8000c78:	69e8      	ldr	r0, [r5, #28]
 8000c7a:	2800      	cmp	r0, #0
 8000c7c:	f040 812c 	bne.w	8000ed8 <HAL_RCC_OscConfig+0x288>
 8000c80:	2000      	movs	r0, #0
 8000c82:	e028      	b.n	8000cd6 <HAL_RCC_OscConfig+0x86>
 8000c84:	4c8f      	ldr	r4, [pc, #572]	; (8000ec4 <HAL_RCC_OscConfig+0x274>)
 8000c86:	6863      	ldr	r3, [r4, #4]
 8000c88:	f003 030c 	and.w	r3, r3, #12
 8000c8c:	2b04      	cmp	r3, #4
 8000c8e:	d007      	beq.n	8000ca0 <HAL_RCC_OscConfig+0x50>
 8000c90:	6863      	ldr	r3, [r4, #4]
 8000c92:	f003 030c 	and.w	r3, r3, #12
 8000c96:	2b08      	cmp	r3, #8
 8000c98:	d109      	bne.n	8000cae <HAL_RCC_OscConfig+0x5e>
 8000c9a:	6863      	ldr	r3, [r4, #4]
 8000c9c:	03de      	lsls	r6, r3, #15
 8000c9e:	d506      	bpl.n	8000cae <HAL_RCC_OscConfig+0x5e>
 8000ca0:	6823      	ldr	r3, [r4, #0]
 8000ca2:	039c      	lsls	r4, r3, #14
 8000ca4:	d5dd      	bpl.n	8000c62 <HAL_RCC_OscConfig+0x12>
 8000ca6:	686b      	ldr	r3, [r5, #4]
 8000ca8:	2b00      	cmp	r3, #0
 8000caa:	d1da      	bne.n	8000c62 <HAL_RCC_OscConfig+0x12>
 8000cac:	e7d4      	b.n	8000c58 <HAL_RCC_OscConfig+0x8>
 8000cae:	686b      	ldr	r3, [r5, #4]
 8000cb0:	f5b3 3f80 	cmp.w	r3, #65536	; 0x10000
 8000cb4:	d112      	bne.n	8000cdc <HAL_RCC_OscConfig+0x8c>
 8000cb6:	6823      	ldr	r3, [r4, #0]
 8000cb8:	f443 3380 	orr.w	r3, r3, #65536	; 0x10000
 8000cbc:	6023      	str	r3, [r4, #0]
 8000cbe:	f7ff fa87 	bl	80001d0 <HAL_GetTick>
 8000cc2:	4606      	mov	r6, r0
 8000cc4:	6823      	ldr	r3, [r4, #0]
 8000cc6:	0398      	lsls	r0, r3, #14
 8000cc8:	d4cb      	bmi.n	8000c62 <HAL_RCC_OscConfig+0x12>
 8000cca:	f7ff fa81 	bl	80001d0 <HAL_GetTick>
 8000cce:	1b80      	subs	r0, r0, r6
 8000cd0:	2864      	cmp	r0, #100	; 0x64
 8000cd2:	d9f7      	bls.n	8000cc4 <HAL_RCC_OscConfig+0x74>
 8000cd4:	2003      	movs	r0, #3
 8000cd6:	b002      	add	sp, #8
 8000cd8:	e8bd 81f0 	ldmia.w	sp!, {r4, r5, r6, r7, r8, pc}
 8000cdc:	b99b      	cbnz	r3, 8000d06 <HAL_RCC_OscConfig+0xb6>
 8000cde:	6823      	ldr	r3, [r4, #0]
 8000ce0:	f423 3380 	bic.w	r3, r3, #65536	; 0x10000
 8000ce4:	6023      	str	r3, [r4, #0]
 8000ce6:	6823      	ldr	r3, [r4, #0]
 8000ce8:	f423 2380 	bic.w	r3, r3, #262144	; 0x40000
 8000cec:	6023      	str	r3, [r4, #0]
 8000cee:	f7ff fa6f 	bl	80001d0 <HAL_GetTick>
 8000cf2:	4606      	mov	r6, r0
 8000cf4:	6823      	ldr	r3, [r4, #0]
 8000cf6:	0399      	lsls	r1, r3, #14
 8000cf8:	d5b3      	bpl.n	8000c62 <HAL_RCC_OscConfig+0x12>
 8000cfa:	f7ff fa69 	bl	80001d0 <HAL_GetTick>
 8000cfe:	1b80      	subs	r0, r0, r6
 8000d00:	2864      	cmp	r0, #100	; 0x64
 8000d02:	d9f7      	bls.n	8000cf4 <HAL_RCC_OscConfig+0xa4>
 8000d04:	e7e6      	b.n	8000cd4 <HAL_RCC_OscConfig+0x84>
 8000d06:	f5b3 2fa0 	cmp.w	r3, #327680	; 0x50000
 8000d0a:	6823      	ldr	r3, [r4, #0]
 8000d0c:	d103      	bne.n	8000d16 <HAL_RCC_OscConfig+0xc6>
 8000d0e:	f443 2380 	orr.w	r3, r3, #262144	; 0x40000
 8000d12:	6023      	str	r3, [r4, #0]
 8000d14:	e7cf      	b.n	8000cb6 <HAL_RCC_OscConfig+0x66>
 8000d16:	f423 3380 	bic.w	r3, r3, #65536	; 0x10000
 8000d1a:	6023      	str	r3, [r4, #0]
 8000d1c:	6823      	ldr	r3, [r4, #0]
 8000d1e:	f423 2380 	bic.w	r3, r3, #262144	; 0x40000
 8000d22:	e7cb      	b.n	8000cbc <HAL_RCC_OscConfig+0x6c>
 8000d24:	4c67      	ldr	r4, [pc, #412]	; (8000ec4 <HAL_RCC_OscConfig+0x274>)
 8000d26:	6863      	ldr	r3, [r4, #4]
 8000d28:	f013 0f0c 	tst.w	r3, #12
 8000d2c:	d007      	beq.n	8000d3e <HAL_RCC_OscConfig+0xee>
 8000d2e:	6863      	ldr	r3, [r4, #4]
 8000d30:	f003 030c 	and.w	r3, r3, #12
 8000d34:	2b08      	cmp	r3, #8
 8000d36:	d110      	bne.n	8000d5a <HAL_RCC_OscConfig+0x10a>
 8000d38:	6863      	ldr	r3, [r4, #4]
 8000d3a:	03da      	lsls	r2, r3, #15
 8000d3c:	d40d      	bmi.n	8000d5a <HAL_RCC_OscConfig+0x10a>
 8000d3e:	6823      	ldr	r3, [r4, #0]
 8000d40:	079b      	lsls	r3, r3, #30
 8000d42:	d502      	bpl.n	8000d4a <HAL_RCC_OscConfig+0xfa>
 8000d44:	692b      	ldr	r3, [r5, #16]
 8000d46:	2b01      	cmp	r3, #1
 8000d48:	d186      	bne.n	8000c58 <HAL_RCC_OscConfig+0x8>
 8000d4a:	6823      	ldr	r3, [r4, #0]
 8000d4c:	696a      	ldr	r2, [r5, #20]
 8000d4e:	f023 03f8 	bic.w	r3, r3, #248	; 0xf8
 8000d52:	ea43 03c2 	orr.w	r3, r3, r2, lsl #3
 8000d56:	6023      	str	r3, [r4, #0]
 8000d58:	e786      	b.n	8000c68 <HAL_RCC_OscConfig+0x18>
 8000d5a:	692a      	ldr	r2, [r5, #16]
 8000d5c:	4b5a      	ldr	r3, [pc, #360]	; (8000ec8 <HAL_RCC_OscConfig+0x278>)
 8000d5e:	b16a      	cbz	r2, 8000d7c <HAL_RCC_OscConfig+0x12c>
 8000d60:	2201      	movs	r2, #1
 8000d62:	601a      	str	r2, [r3, #0]
 8000d64:	f7ff fa34 	bl	80001d0 <HAL_GetTick>
 8000d68:	4606      	mov	r6, r0
 8000d6a:	6823      	ldr	r3, [r4, #0]
 8000d6c:	079f      	lsls	r7, r3, #30
 8000d6e:	d4ec      	bmi.n	8000d4a <HAL_RCC_OscConfig+0xfa>
 8000d70:	f7ff fa2e 	bl	80001d0 <HAL_GetTick>
 8000d74:	1b80      	subs	r0, r0, r6
 8000d76:	2802      	cmp	r0, #2
 8000d78:	d9f7      	bls.n	8000d6a <HAL_RCC_OscConfig+0x11a>
 8000d7a:	e7ab      	b.n	8000cd4 <HAL_RCC_OscConfig+0x84>
 8000d7c:	601a      	str	r2, [r3, #0]
 8000d7e:	f7ff fa27 	bl	80001d0 <HAL_GetTick>
 8000d82:	4606      	mov	r6, r0
 8000d84:	6823      	ldr	r3, [r4, #0]
 8000d86:	0798      	lsls	r0, r3, #30
 8000d88:	f57f af6e 	bpl.w	8000c68 <HAL_RCC_OscConfig+0x18>
 8000d8c:	f7ff fa20 	bl	80001d0 <HAL_GetTick>
 8000d90:	1b80      	subs	r0, r0, r6
 8000d92:	2802      	cmp	r0, #2
 8000d94:	d9f6      	bls.n	8000d84 <HAL_RCC_OscConfig+0x134>
 8000d96:	e79d      	b.n	8000cd4 <HAL_RCC_OscConfig+0x84>
 8000d98:	69aa      	ldr	r2, [r5, #24]
 8000d9a:	4c4a      	ldr	r4, [pc, #296]	; (8000ec4 <HAL_RCC_OscConfig+0x274>)
 8000d9c:	4b4b      	ldr	r3, [pc, #300]	; (8000ecc <HAL_RCC_OscConfig+0x27c>)
 8000d9e:	b1da      	cbz	r2, 8000dd8 <HAL_RCC_OscConfig+0x188>
 8000da0:	2201      	movs	r2, #1
 8000da2:	601a      	str	r2, [r3, #0]
 8000da4:	f7ff fa14 	bl	80001d0 <HAL_GetTick>
 8000da8:	4606      	mov	r6, r0
 8000daa:	6a63      	ldr	r3, [r4, #36]	; 0x24
 8000dac:	079b      	lsls	r3, r3, #30
 8000dae:	d50d      	bpl.n	8000dcc <HAL_RCC_OscConfig+0x17c>
 8000db0:	f44f 52fa 	mov.w	r2, #8000	; 0x1f40
 8000db4:	4b46      	ldr	r3, [pc, #280]	; (8000ed0 <HAL_RCC_OscConfig+0x280>)
 8000db6:	681b      	ldr	r3, [r3, #0]
 8000db8:	fbb3 f3f2 	udiv	r3, r3, r2
 8000dbc:	9301      	str	r3, [sp, #4]
 8000dbe:	bf00      	nop
 8000dc0:	9b01      	ldr	r3, [sp, #4]
 8000dc2:	1e5a      	subs	r2, r3, #1
 8000dc4:	9201      	str	r2, [sp, #4]
 8000dc6:	2b00      	cmp	r3, #0
 8000dc8:	d1f9      	bne.n	8000dbe <HAL_RCC_OscConfig+0x16e>
 8000dca:	e751      	b.n	8000c70 <HAL_RCC_OscConfig+0x20>
 8000dcc:	f7ff fa00 	bl	80001d0 <HAL_GetTick>
 8000dd0:	1b80      	subs	r0, r0, r6
 8000dd2:	2802      	cmp	r0, #2
 8000dd4:	d9e9      	bls.n	8000daa <HAL_RCC_OscConfig+0x15a>
 8000dd6:	e77d      	b.n	8000cd4 <HAL_RCC_OscConfig+0x84>
 8000dd8:	601a      	str	r2, [r3, #0]
 8000dda:	f7ff f9f9 	bl	80001d0 <HAL_GetTick>
 8000dde:	4606      	mov	r6, r0
 8000de0:	6a63      	ldr	r3, [r4, #36]	; 0x24
 8000de2:	079f      	lsls	r7, r3, #30
 8000de4:	f57f af44 	bpl.w	8000c70 <HAL_RCC_OscConfig+0x20>
 8000de8:	f7ff f9f2 	bl	80001d0 <HAL_GetTick>
 8000dec:	1b80      	subs	r0, r0, r6
 8000dee:	2802      	cmp	r0, #2
 8000df0:	d9f6      	bls.n	8000de0 <HAL_RCC_OscConfig+0x190>
 8000df2:	e76f      	b.n	8000cd4 <HAL_RCC_OscConfig+0x84>
 8000df4:	4c33      	ldr	r4, [pc, #204]	; (8000ec4 <HAL_RCC_OscConfig+0x274>)
 8000df6:	69e3      	ldr	r3, [r4, #28]
 8000df8:	00d8      	lsls	r0, r3, #3
 8000dfa:	d424      	bmi.n	8000e46 <HAL_RCC_OscConfig+0x1f6>
 8000dfc:	2701      	movs	r7, #1
 8000dfe:	69e3      	ldr	r3, [r4, #28]
 8000e00:	f043 5380 	orr.w	r3, r3, #268435456	; 0x10000000
 8000e04:	61e3      	str	r3, [r4, #28]
 8000e06:	69e3      	ldr	r3, [r4, #28]
 8000e08:	f003 5380 	and.w	r3, r3, #268435456	; 0x10000000
 8000e0c:	9300      	str	r3, [sp, #0]
 8000e0e:	9b00      	ldr	r3, [sp, #0]
 8000e10:	4e30      	ldr	r6, [pc, #192]	; (8000ed4 <HAL_RCC_OscConfig+0x284>)
 8000e12:	6833      	ldr	r3, [r6, #0]
 8000e14:	05d9      	lsls	r1, r3, #23
 8000e16:	d518      	bpl.n	8000e4a <HAL_RCC_OscConfig+0x1fa>
 8000e18:	68eb      	ldr	r3, [r5, #12]
 8000e1a:	2b01      	cmp	r3, #1
 8000e1c:	d126      	bne.n	8000e6c <HAL_RCC_OscConfig+0x21c>
 8000e1e:	6a23      	ldr	r3, [r4, #32]
 8000e20:	f043 0301 	orr.w	r3, r3, #1
 8000e24:	6223      	str	r3, [r4, #32]
 8000e26:	f7ff f9d3 	bl	80001d0 <HAL_GetTick>
 8000e2a:	f241 3688 	movw	r6, #5000	; 0x1388
 8000e2e:	4680      	mov	r8, r0
 8000e30:	6a23      	ldr	r3, [r4, #32]
 8000e32:	079b      	lsls	r3, r3, #30
 8000e34:	d53f      	bpl.n	8000eb6 <HAL_RCC_OscConfig+0x266>
 8000e36:	2f00      	cmp	r7, #0
 8000e38:	f43f af1e 	beq.w	8000c78 <HAL_RCC_OscConfig+0x28>
 8000e3c:	69e3      	ldr	r3, [r4, #28]
 8000e3e:	f023 5380 	bic.w	r3, r3, #268435456	; 0x10000000
 8000e42:	61e3      	str	r3, [r4, #28]
 8000e44:	e718      	b.n	8000c78 <HAL_RCC_OscConfig+0x28>
 8000e46:	2700      	movs	r7, #0
 8000e48:	e7e2      	b.n	8000e10 <HAL_RCC_OscConfig+0x1c0>
 8000e4a:	6833      	ldr	r3, [r6, #0]
 8000e4c:	f443 7380 	orr.w	r3, r3, #256	; 0x100
 8000e50:	6033      	str	r3, [r6, #0]
 8000e52:	f7ff f9bd 	bl	80001d0 <HAL_GetTick>
 8000e56:	4680      	mov	r8, r0
 8000e58:	6833      	ldr	r3, [r6, #0]
 8000e5a:	05da      	lsls	r2, r3, #23
 8000e5c:	d4dc      	bmi.n	8000e18 <HAL_RCC_OscConfig+0x1c8>
 8000e5e:	f7ff f9b7 	bl	80001d0 <HAL_GetTick>
 8000e62:	eba0 0008 	sub.w	r0, r0, r8
 8000e66:	2864      	cmp	r0, #100	; 0x64
 8000e68:	d9f6      	bls.n	8000e58 <HAL_RCC_OscConfig+0x208>
 8000e6a:	e733      	b.n	8000cd4 <HAL_RCC_OscConfig+0x84>
 8000e6c:	b9ab      	cbnz	r3, 8000e9a <HAL_RCC_OscConfig+0x24a>
 8000e6e:	6a23      	ldr	r3, [r4, #32]
 8000e70:	f241 3888 	movw	r8, #5000	; 0x1388
 8000e74:	f023 0301 	bic.w	r3, r3, #1
 8000e78:	6223      	str	r3, [r4, #32]
 8000e7a:	6a23      	ldr	r3, [r4, #32]
 8000e7c:	f023 0304 	bic.w	r3, r3, #4
 8000e80:	6223      	str	r3, [r4, #32]
 8000e82:	f7ff f9a5 	bl	80001d0 <HAL_GetTick>
 8000e86:	4606      	mov	r6, r0
 8000e88:	6a23      	ldr	r3, [r4, #32]
 8000e8a:	0798      	lsls	r0, r3, #30
 8000e8c:	d5d3      	bpl.n	8000e36 <HAL_RCC_OscConfig+0x1e6>
 8000e8e:	f7ff f99f 	bl	80001d0 <HAL_GetTick>
 8000e92:	1b80      	subs	r0, r0, r6
 8000e94:	4540      	cmp	r0, r8
 8000e96:	d9f7      	bls.n	8000e88 <HAL_RCC_OscConfig+0x238>
 8000e98:	e71c      	b.n	8000cd4 <HAL_RCC_OscConfig+0x84>
 8000e9a:	2b05      	cmp	r3, #5
 8000e9c:	6a23      	ldr	r3, [r4, #32]
 8000e9e:	d103      	bne.n	8000ea8 <HAL_RCC_OscConfig+0x258>
 8000ea0:	f043 0304 	orr.w	r3, r3, #4
 8000ea4:	6223      	str	r3, [r4, #32]
 8000ea6:	e7ba      	b.n	8000e1e <HAL_RCC_OscConfig+0x1ce>
 8000ea8:	f023 0301 	bic.w	r3, r3, #1
 8000eac:	6223      	str	r3, [r4, #32]
 8000eae:	6a23      	ldr	r3, [r4, #32]
 8000eb0:	f023 0304 	bic.w	r3, r3, #4
 8000eb4:	e7b6      	b.n	8000e24 <HAL_RCC_OscConfig+0x1d4>
 8000eb6:	f7ff f98b 	bl	80001d0 <HAL_GetTick>
 8000eba:	eba0 0008 	sub.w	r0, r0, r8
 8000ebe:	42b0      	cmp	r0, r6
 8000ec0:	d9b6      	bls.n	8000e30 <HAL_RCC_OscConfig+0x1e0>
 8000ec2:	e707      	b.n	8000cd4 <HAL_RCC_OscConfig+0x84>
 8000ec4:	40021000 	.word	0x40021000
 8000ec8:	42420000 	.word	0x42420000
 8000ecc:	42420480 	.word	0x42420480
 8000ed0:	20000118 	.word	0x20000118
 8000ed4:	40007000 	.word	0x40007000
 8000ed8:	4b2a      	ldr	r3, [pc, #168]	; (8000f84 <HAL_RCC_OscConfig+0x334>)
 8000eda:	685a      	ldr	r2, [r3, #4]
 8000edc:	461c      	mov	r4, r3
 8000ede:	f002 020c 	and.w	r2, r2, #12
 8000ee2:	2a08      	cmp	r2, #8
 8000ee4:	d03d      	beq.n	8000f62 <HAL_RCC_OscConfig+0x312>
 8000ee6:	2300      	movs	r3, #0
 8000ee8:	4e27      	ldr	r6, [pc, #156]	; (8000f88 <HAL_RCC_OscConfig+0x338>)
 8000eea:	2802      	cmp	r0, #2
 8000eec:	6033      	str	r3, [r6, #0]
 8000eee:	d12b      	bne.n	8000f48 <HAL_RCC_OscConfig+0x2f8>
 8000ef0:	f7ff f96e 	bl	80001d0 <HAL_GetTick>
 8000ef4:	4607      	mov	r7, r0
 8000ef6:	6823      	ldr	r3, [r4, #0]
 8000ef8:	0199      	lsls	r1, r3, #6
 8000efa:	d41f      	bmi.n	8000f3c <HAL_RCC_OscConfig+0x2ec>
 8000efc:	6a2b      	ldr	r3, [r5, #32]
 8000efe:	f5b3 3f80 	cmp.w	r3, #65536	; 0x10000
 8000f02:	d105      	bne.n	8000f10 <HAL_RCC_OscConfig+0x2c0>
 8000f04:	6862      	ldr	r2, [r4, #4]
 8000f06:	68a9      	ldr	r1, [r5, #8]
 8000f08:	f422 3200 	bic.w	r2, r2, #131072	; 0x20000
 8000f0c:	430a      	orrs	r2, r1
 8000f0e:	6062      	str	r2, [r4, #4]
 8000f10:	6a69      	ldr	r1, [r5, #36]	; 0x24
 8000f12:	6862      	ldr	r2, [r4, #4]
 8000f14:	430b      	orrs	r3, r1
 8000f16:	f422 1274 	bic.w	r2, r2, #3997696	; 0x3d0000
 8000f1a:	4313      	orrs	r3, r2
 8000f1c:	6063      	str	r3, [r4, #4]
 8000f1e:	2301      	movs	r3, #1
 8000f20:	6033      	str	r3, [r6, #0]
 8000f22:	f7ff f955 	bl	80001d0 <HAL_GetTick>
 8000f26:	4605      	mov	r5, r0
 8000f28:	6823      	ldr	r3, [r4, #0]
 8000f2a:	019a      	lsls	r2, r3, #6
 8000f2c:	f53f aea8 	bmi.w	8000c80 <HAL_RCC_OscConfig+0x30>
 8000f30:	f7ff f94e 	bl	80001d0 <HAL_GetTick>
 8000f34:	1b40      	subs	r0, r0, r5
 8000f36:	2802      	cmp	r0, #2
 8000f38:	d9f6      	bls.n	8000f28 <HAL_RCC_OscConfig+0x2d8>
 8000f3a:	e6cb      	b.n	8000cd4 <HAL_RCC_OscConfig+0x84>
 8000f3c:	f7ff f948 	bl	80001d0 <HAL_GetTick>
 8000f40:	1bc0      	subs	r0, r0, r7
 8000f42:	2802      	cmp	r0, #2
 8000f44:	d9d7      	bls.n	8000ef6 <HAL_RCC_OscConfig+0x2a6>
 8000f46:	e6c5      	b.n	8000cd4 <HAL_RCC_OscConfig+0x84>
 8000f48:	f7ff f942 	bl	80001d0 <HAL_GetTick>
 8000f4c:	4605      	mov	r5, r0
 8000f4e:	6823      	ldr	r3, [r4, #0]
 8000f50:	019b      	lsls	r3, r3, #6
 8000f52:	f57f ae95 	bpl.w	8000c80 <HAL_RCC_OscConfig+0x30>
 8000f56:	f7ff f93b 	bl	80001d0 <HAL_GetTick>
 8000f5a:	1b40      	subs	r0, r0, r5
 8000f5c:	2802      	cmp	r0, #2
 8000f5e:	d9f6      	bls.n	8000f4e <HAL_RCC_OscConfig+0x2fe>
 8000f60:	e6b8      	b.n	8000cd4 <HAL_RCC_OscConfig+0x84>
 8000f62:	2801      	cmp	r0, #1
 8000f64:	f43f aeb7 	beq.w	8000cd6 <HAL_RCC_OscConfig+0x86>
 8000f68:	6858      	ldr	r0, [r3, #4]
 8000f6a:	6a2b      	ldr	r3, [r5, #32]
 8000f6c:	f400 3280 	and.w	r2, r0, #65536	; 0x10000
 8000f70:	429a      	cmp	r2, r3
 8000f72:	f47f ae71 	bne.w	8000c58 <HAL_RCC_OscConfig+0x8>
 8000f76:	6a6b      	ldr	r3, [r5, #36]	; 0x24
 8000f78:	f400 1070 	and.w	r0, r0, #3932160	; 0x3c0000
 8000f7c:	1ac0      	subs	r0, r0, r3
 8000f7e:	bf18      	it	ne
 8000f80:	2001      	movne	r0, #1
 8000f82:	e6a8      	b.n	8000cd6 <HAL_RCC_OscConfig+0x86>
 8000f84:	40021000 	.word	0x40021000
 8000f88:	42420060 	.word	0x42420060

08000f8c <HAL_RCC_GetSysClockFreq>:
 8000f8c:	b530      	push	{r4, r5, lr}
 8000f8e:	4b19      	ldr	r3, [pc, #100]	; (8000ff4 <HAL_RCC_GetSysClockFreq+0x68>)
 8000f90:	b087      	sub	sp, #28
 8000f92:	ac02      	add	r4, sp, #8
 8000f94:	f103 0510 	add.w	r5, r3, #16
 8000f98:	4622      	mov	r2, r4
 8000f9a:	6818      	ldr	r0, [r3, #0]
 8000f9c:	6859      	ldr	r1, [r3, #4]
 8000f9e:	3308      	adds	r3, #8
 8000fa0:	c203      	stmia	r2!, {r0, r1}
 8000fa2:	42ab      	cmp	r3, r5
 8000fa4:	4614      	mov	r4, r2
 8000fa6:	d1f7      	bne.n	8000f98 <HAL_RCC_GetSysClockFreq+0xc>
 8000fa8:	2301      	movs	r3, #1
 8000faa:	f88d 3004 	strb.w	r3, [sp, #4]
 8000fae:	2302      	movs	r3, #2
 8000fb0:	4911      	ldr	r1, [pc, #68]	; (8000ff8 <HAL_RCC_GetSysClockFreq+0x6c>)
 8000fb2:	f88d 3005 	strb.w	r3, [sp, #5]
 8000fb6:	684b      	ldr	r3, [r1, #4]
 8000fb8:	f003 020c 	and.w	r2, r3, #12
 8000fbc:	2a08      	cmp	r2, #8
 8000fbe:	d117      	bne.n	8000ff0 <HAL_RCC_GetSysClockFreq+0x64>
 8000fc0:	f3c3 4283 	ubfx	r2, r3, #18, #4
 8000fc4:	a806      	add	r0, sp, #24
 8000fc6:	4402      	add	r2, r0
 8000fc8:	03db      	lsls	r3, r3, #15
 8000fca:	f812 2c10 	ldrb.w	r2, [r2, #-16]
 8000fce:	d50c      	bpl.n	8000fea <HAL_RCC_GetSysClockFreq+0x5e>
 8000fd0:	684b      	ldr	r3, [r1, #4]
 8000fd2:	480a      	ldr	r0, [pc, #40]	; (8000ffc <HAL_RCC_GetSysClockFreq+0x70>)
 8000fd4:	f3c3 4340 	ubfx	r3, r3, #17, #1
 8000fd8:	4350      	muls	r0, r2
 8000fda:	aa06      	add	r2, sp, #24
 8000fdc:	4413      	add	r3, r2
 8000fde:	f813 3c14 	ldrb.w	r3, [r3, #-20]
 8000fe2:	fbb0 f0f3 	udiv	r0, r0, r3
 8000fe6:	b007      	add	sp, #28
 8000fe8:	bd30      	pop	{r4, r5, pc}
 8000fea:	4805      	ldr	r0, [pc, #20]	; (8001000 <HAL_RCC_GetSysClockFreq+0x74>)
 8000fec:	4350      	muls	r0, r2
 8000fee:	e7fa      	b.n	8000fe6 <HAL_RCC_GetSysClockFreq+0x5a>
 8000ff0:	4802      	ldr	r0, [pc, #8]	; (8000ffc <HAL_RCC_GetSysClockFreq+0x70>)
 8000ff2:	e7f8      	b.n	8000fe6 <HAL_RCC_GetSysClockFreq+0x5a>
 8000ff4:	0800407c 	.word	0x0800407c
 8000ff8:	40021000 	.word	0x40021000
 8000ffc:	007a1200 	.word	0x007a1200
 8001000:	003d0900 	.word	0x003d0900

08001004 <HAL_RCC_ClockConfig>:
 8001004:	e92d 41f0 	stmdb	sp!, {r4, r5, r6, r7, r8, lr}
 8001008:	460d      	mov	r5, r1
 800100a:	4604      	mov	r4, r0
 800100c:	b910      	cbnz	r0, 8001014 <HAL_RCC_ClockConfig+0x10>
 800100e:	2001      	movs	r0, #1
 8001010:	e8bd 81f0 	ldmia.w	sp!, {r4, r5, r6, r7, r8, pc}
 8001014:	4a45      	ldr	r2, [pc, #276]	; (800112c <HAL_RCC_ClockConfig+0x128>)
 8001016:	6813      	ldr	r3, [r2, #0]
 8001018:	f003 0307 	and.w	r3, r3, #7
 800101c:	428b      	cmp	r3, r1
 800101e:	d329      	bcc.n	8001074 <HAL_RCC_ClockConfig+0x70>
 8001020:	6821      	ldr	r1, [r4, #0]
 8001022:	078e      	lsls	r6, r1, #30
 8001024:	d431      	bmi.n	800108a <HAL_RCC_ClockConfig+0x86>
 8001026:	07ca      	lsls	r2, r1, #31
 8001028:	d444      	bmi.n	80010b4 <HAL_RCC_ClockConfig+0xb0>
 800102a:	4a40      	ldr	r2, [pc, #256]	; (800112c <HAL_RCC_ClockConfig+0x128>)
 800102c:	6813      	ldr	r3, [r2, #0]
 800102e:	f003 0307 	and.w	r3, r3, #7
 8001032:	429d      	cmp	r5, r3
 8001034:	d367      	bcc.n	8001106 <HAL_RCC_ClockConfig+0x102>
 8001036:	6822      	ldr	r2, [r4, #0]
 8001038:	4d3d      	ldr	r5, [pc, #244]	; (8001130 <HAL_RCC_ClockConfig+0x12c>)
 800103a:	f012 0f04 	tst.w	r2, #4
 800103e:	d16e      	bne.n	800111e <HAL_RCC_ClockConfig+0x11a>
 8001040:	0713      	lsls	r3, r2, #28
 8001042:	d506      	bpl.n	8001052 <HAL_RCC_ClockConfig+0x4e>
 8001044:	686b      	ldr	r3, [r5, #4]
 8001046:	6922      	ldr	r2, [r4, #16]
 8001048:	f423 5360 	bic.w	r3, r3, #14336	; 0x3800
 800104c:	ea43 03c2 	orr.w	r3, r3, r2, lsl #3
 8001050:	606b      	str	r3, [r5, #4]
 8001052:	f7ff ff9b 	bl	8000f8c <HAL_RCC_GetSysClockFreq>
 8001056:	686b      	ldr	r3, [r5, #4]
 8001058:	4a36      	ldr	r2, [pc, #216]	; (8001134 <HAL_RCC_ClockConfig+0x130>)
 800105a:	f3c3 1303 	ubfx	r3, r3, #4, #4
 800105e:	5cd3      	ldrb	r3, [r2, r3]
 8001060:	40d8      	lsrs	r0, r3
 8001062:	4b35      	ldr	r3, [pc, #212]	; (8001138 <HAL_RCC_ClockConfig+0x134>)
 8001064:	6018      	str	r0, [r3, #0]
 8001066:	4b35      	ldr	r3, [pc, #212]	; (800113c <HAL_RCC_ClockConfig+0x138>)
 8001068:	6818      	ldr	r0, [r3, #0]
 800106a:	f7ff f86f 	bl	800014c <HAL_InitTick>
 800106e:	2000      	movs	r0, #0
 8001070:	e8bd 81f0 	ldmia.w	sp!, {r4, r5, r6, r7, r8, pc}
 8001074:	6813      	ldr	r3, [r2, #0]
 8001076:	f023 0307 	bic.w	r3, r3, #7
 800107a:	430b      	orrs	r3, r1
 800107c:	6013      	str	r3, [r2, #0]
 800107e:	6813      	ldr	r3, [r2, #0]
 8001080:	f003 0307 	and.w	r3, r3, #7
 8001084:	4299      	cmp	r1, r3
 8001086:	d1c2      	bne.n	800100e <HAL_RCC_ClockConfig+0xa>
 8001088:	e7ca      	b.n	8001020 <HAL_RCC_ClockConfig+0x1c>
 800108a:	4b29      	ldr	r3, [pc, #164]	; (8001130 <HAL_RCC_ClockConfig+0x12c>)
 800108c:	f011 0f04 	tst.w	r1, #4
 8001090:	bf1e      	ittt	ne
 8001092:	685a      	ldrne	r2, [r3, #4]
 8001094:	f442 62e0 	orrne.w	r2, r2, #1792	; 0x700
 8001098:	605a      	strne	r2, [r3, #4]
 800109a:	0708      	lsls	r0, r1, #28
 800109c:	bf42      	ittt	mi
 800109e:	685a      	ldrmi	r2, [r3, #4]
 80010a0:	f442 5260 	orrmi.w	r2, r2, #14336	; 0x3800
 80010a4:	605a      	strmi	r2, [r3, #4]
 80010a6:	685a      	ldr	r2, [r3, #4]
 80010a8:	68a0      	ldr	r0, [r4, #8]
 80010aa:	f022 02f0 	bic.w	r2, r2, #240	; 0xf0
 80010ae:	4302      	orrs	r2, r0
 80010b0:	605a      	str	r2, [r3, #4]
 80010b2:	e7b8      	b.n	8001026 <HAL_RCC_ClockConfig+0x22>
 80010b4:	6862      	ldr	r2, [r4, #4]
 80010b6:	4e1e      	ldr	r6, [pc, #120]	; (8001130 <HAL_RCC_ClockConfig+0x12c>)
 80010b8:	2a01      	cmp	r2, #1
 80010ba:	6833      	ldr	r3, [r6, #0]
 80010bc:	d11b      	bne.n	80010f6 <HAL_RCC_ClockConfig+0xf2>
 80010be:	f413 3f00 	tst.w	r3, #131072	; 0x20000
 80010c2:	d0a4      	beq.n	800100e <HAL_RCC_ClockConfig+0xa>
 80010c4:	6873      	ldr	r3, [r6, #4]
 80010c6:	f241 3888 	movw	r8, #5000	; 0x1388
 80010ca:	f023 0303 	bic.w	r3, r3, #3
 80010ce:	4313      	orrs	r3, r2
 80010d0:	6073      	str	r3, [r6, #4]
 80010d2:	f7ff f87d 	bl	80001d0 <HAL_GetTick>
 80010d6:	4607      	mov	r7, r0
 80010d8:	6873      	ldr	r3, [r6, #4]
 80010da:	6862      	ldr	r2, [r4, #4]
 80010dc:	f003 030c 	and.w	r3, r3, #12
 80010e0:	ebb3 0f82 	cmp.w	r3, r2, lsl #2
 80010e4:	d0a1      	beq.n	800102a <HAL_RCC_ClockConfig+0x26>
 80010e6:	f7ff f873 	bl	80001d0 <HAL_GetTick>
 80010ea:	1bc0      	subs	r0, r0, r7
 80010ec:	4540      	cmp	r0, r8
 80010ee:	d9f3      	bls.n	80010d8 <HAL_RCC_ClockConfig+0xd4>
 80010f0:	2003      	movs	r0, #3
 80010f2:	e8bd 81f0 	ldmia.w	sp!, {r4, r5, r6, r7, r8, pc}
 80010f6:	2a02      	cmp	r2, #2
 80010f8:	d102      	bne.n	8001100 <HAL_RCC_ClockConfig+0xfc>
 80010fa:	f013 7f00 	tst.w	r3, #33554432	; 0x2000000
 80010fe:	e7e0      	b.n	80010c2 <HAL_RCC_ClockConfig+0xbe>
 8001100:	f013 0f02 	tst.w	r3, #2
 8001104:	e7dd      	b.n	80010c2 <HAL_RCC_ClockConfig+0xbe>
 8001106:	6813      	ldr	r3, [r2, #0]
 8001108:	f023 0307 	bic.w	r3, r3, #7
 800110c:	432b      	orrs	r3, r5
 800110e:	6013      	str	r3, [r2, #0]
 8001110:	6813      	ldr	r3, [r2, #0]
 8001112:	f003 0307 	and.w	r3, r3, #7
 8001116:	429d      	cmp	r5, r3
 8001118:	f47f af79 	bne.w	800100e <HAL_RCC_ClockConfig+0xa>
 800111c:	e78b      	b.n	8001036 <HAL_RCC_ClockConfig+0x32>
 800111e:	686b      	ldr	r3, [r5, #4]
 8001120:	68e1      	ldr	r1, [r4, #12]
 8001122:	f423 63e0 	bic.w	r3, r3, #1792	; 0x700
 8001126:	430b      	orrs	r3, r1
 8001128:	606b      	str	r3, [r5, #4]
 800112a:	e789      	b.n	8001040 <HAL_RCC_ClockConfig+0x3c>
 800112c:	40022000 	.word	0x40022000
 8001130:	40021000 	.word	0x40021000
 8001134:	080040bf 	.word	0x080040bf
 8001138:	20000118 	.word	0x20000118
 800113c:	20000004 	.word	0x20000004

08001140 <HAL_RCCEx_PeriphCLKConfig>:
 8001140:	6803      	ldr	r3, [r0, #0]
 8001142:	e92d 41f3 	stmdb	sp!, {r0, r1, r4, r5, r6, r7, r8, lr}
 8001146:	07d9      	lsls	r1, r3, #31
 8001148:	4605      	mov	r5, r0
 800114a:	d520      	bpl.n	800118e <HAL_RCCEx_PeriphCLKConfig+0x4e>
 800114c:	4c35      	ldr	r4, [pc, #212]	; (8001224 <HAL_RCCEx_PeriphCLKConfig+0xe4>)
 800114e:	69e3      	ldr	r3, [r4, #28]
 8001150:	00da      	lsls	r2, r3, #3
 8001152:	d432      	bmi.n	80011ba <HAL_RCCEx_PeriphCLKConfig+0x7a>
 8001154:	2701      	movs	r7, #1
 8001156:	69e3      	ldr	r3, [r4, #28]
 8001158:	f043 5380 	orr.w	r3, r3, #268435456	; 0x10000000
 800115c:	61e3      	str	r3, [r4, #28]
 800115e:	69e3      	ldr	r3, [r4, #28]
 8001160:	f003 5380 	and.w	r3, r3, #268435456	; 0x10000000
 8001164:	9301      	str	r3, [sp, #4]
 8001166:	9b01      	ldr	r3, [sp, #4]
 8001168:	4e2f      	ldr	r6, [pc, #188]	; (8001228 <HAL_RCCEx_PeriphCLKConfig+0xe8>)
 800116a:	6833      	ldr	r3, [r6, #0]
 800116c:	05db      	lsls	r3, r3, #23
 800116e:	d526      	bpl.n	80011be <HAL_RCCEx_PeriphCLKConfig+0x7e>
 8001170:	6a23      	ldr	r3, [r4, #32]
 8001172:	f413 7340 	ands.w	r3, r3, #768	; 0x300
 8001176:	d136      	bne.n	80011e6 <HAL_RCCEx_PeriphCLKConfig+0xa6>
 8001178:	6a23      	ldr	r3, [r4, #32]
 800117a:	686a      	ldr	r2, [r5, #4]
 800117c:	f423 7340 	bic.w	r3, r3, #768	; 0x300
 8001180:	4313      	orrs	r3, r2
 8001182:	6223      	str	r3, [r4, #32]
 8001184:	b11f      	cbz	r7, 800118e <HAL_RCCEx_PeriphCLKConfig+0x4e>
 8001186:	69e3      	ldr	r3, [r4, #28]
 8001188:	f023 5380 	bic.w	r3, r3, #268435456	; 0x10000000
 800118c:	61e3      	str	r3, [r4, #28]
 800118e:	6828      	ldr	r0, [r5, #0]
 8001190:	0783      	lsls	r3, r0, #30
 8001192:	d506      	bpl.n	80011a2 <HAL_RCCEx_PeriphCLKConfig+0x62>
 8001194:	4a23      	ldr	r2, [pc, #140]	; (8001224 <HAL_RCCEx_PeriphCLKConfig+0xe4>)
 8001196:	68a9      	ldr	r1, [r5, #8]
 8001198:	6853      	ldr	r3, [r2, #4]
 800119a:	f423 4340 	bic.w	r3, r3, #49152	; 0xc000
 800119e:	430b      	orrs	r3, r1
 80011a0:	6053      	str	r3, [r2, #4]
 80011a2:	f010 0010 	ands.w	r0, r0, #16
 80011a6:	d01b      	beq.n	80011e0 <HAL_RCCEx_PeriphCLKConfig+0xa0>
 80011a8:	4a1e      	ldr	r2, [pc, #120]	; (8001224 <HAL_RCCEx_PeriphCLKConfig+0xe4>)
 80011aa:	68e9      	ldr	r1, [r5, #12]
 80011ac:	6853      	ldr	r3, [r2, #4]
 80011ae:	2000      	movs	r0, #0
 80011b0:	f423 0380 	bic.w	r3, r3, #4194304	; 0x400000
 80011b4:	430b      	orrs	r3, r1
 80011b6:	6053      	str	r3, [r2, #4]
 80011b8:	e012      	b.n	80011e0 <HAL_RCCEx_PeriphCLKConfig+0xa0>
 80011ba:	2700      	movs	r7, #0
 80011bc:	e7d4      	b.n	8001168 <HAL_RCCEx_PeriphCLKConfig+0x28>
 80011be:	6833      	ldr	r3, [r6, #0]
 80011c0:	f443 7380 	orr.w	r3, r3, #256	; 0x100
 80011c4:	6033      	str	r3, [r6, #0]
 80011c6:	f7ff f803 	bl	80001d0 <HAL_GetTick>
 80011ca:	4680      	mov	r8, r0
 80011cc:	6833      	ldr	r3, [r6, #0]
 80011ce:	05d8      	lsls	r0, r3, #23
 80011d0:	d4ce      	bmi.n	8001170 <HAL_RCCEx_PeriphCLKConfig+0x30>
 80011d2:	f7fe fffd 	bl	80001d0 <HAL_GetTick>
 80011d6:	eba0 0008 	sub.w	r0, r0, r8
 80011da:	2864      	cmp	r0, #100	; 0x64
 80011dc:	d9f6      	bls.n	80011cc <HAL_RCCEx_PeriphCLKConfig+0x8c>
 80011de:	2003      	movs	r0, #3
 80011e0:	b002      	add	sp, #8
 80011e2:	e8bd 81f0 	ldmia.w	sp!, {r4, r5, r6, r7, r8, pc}
 80011e6:	686a      	ldr	r2, [r5, #4]
 80011e8:	f402 7240 	and.w	r2, r2, #768	; 0x300
 80011ec:	4293      	cmp	r3, r2
 80011ee:	d0c3      	beq.n	8001178 <HAL_RCCEx_PeriphCLKConfig+0x38>
 80011f0:	2001      	movs	r0, #1
 80011f2:	4a0e      	ldr	r2, [pc, #56]	; (800122c <HAL_RCCEx_PeriphCLKConfig+0xec>)
 80011f4:	6a23      	ldr	r3, [r4, #32]
 80011f6:	6010      	str	r0, [r2, #0]
 80011f8:	2000      	movs	r0, #0
 80011fa:	f423 7140 	bic.w	r1, r3, #768	; 0x300
 80011fe:	6010      	str	r0, [r2, #0]
 8001200:	6221      	str	r1, [r4, #32]
 8001202:	07d9      	lsls	r1, r3, #31
 8001204:	d5b8      	bpl.n	8001178 <HAL_RCCEx_PeriphCLKConfig+0x38>
 8001206:	f7fe ffe3 	bl	80001d0 <HAL_GetTick>
 800120a:	f241 3888 	movw	r8, #5000	; 0x1388
 800120e:	4606      	mov	r6, r0
 8001210:	6a23      	ldr	r3, [r4, #32]
 8001212:	079a      	lsls	r2, r3, #30
 8001214:	d4b0      	bmi.n	8001178 <HAL_RCCEx_PeriphCLKConfig+0x38>
 8001216:	f7fe ffdb 	bl	80001d0 <HAL_GetTick>
 800121a:	1b80      	subs	r0, r0, r6
 800121c:	4540      	cmp	r0, r8
 800121e:	d9f7      	bls.n	8001210 <HAL_RCCEx_PeriphCLKConfig+0xd0>
 8001220:	e7dd      	b.n	80011de <HAL_RCCEx_PeriphCLKConfig+0x9e>
 8001222:	bf00      	nop
 8001224:	40021000 	.word	0x40021000
 8001228:	40007000 	.word	0x40007000
 800122c:	42420440 	.word	0x42420440

08001230 <HAL_TIM_Base_Start_IT>:
 8001230:	6803      	ldr	r3, [r0, #0]
 8001232:	2000      	movs	r0, #0
 8001234:	68da      	ldr	r2, [r3, #12]
 8001236:	f042 0201 	orr.w	r2, r2, #1
 800123a:	60da      	str	r2, [r3, #12]
 800123c:	689a      	ldr	r2, [r3, #8]
 800123e:	f002 0207 	and.w	r2, r2, #7
 8001242:	2a06      	cmp	r2, #6
 8001244:	bf1e      	ittt	ne
 8001246:	681a      	ldrne	r2, [r3, #0]
 8001248:	f042 0201 	orrne.w	r2, r2, #1
 800124c:	601a      	strne	r2, [r3, #0]
 800124e:	4770      	bx	lr

08001250 <HAL_TIM_PeriodElapsedCallback>:
 8001250:	4770      	bx	lr

08001252 <HAL_TIM_OC_DelayElapsedCallback>:
 8001252:	4770      	bx	lr

08001254 <HAL_TIM_IC_CaptureCallback>:
 8001254:	4770      	bx	lr

08001256 <HAL_TIM_PWM_PulseFinishedCallback>:
 8001256:	4770      	bx	lr

08001258 <HAL_TIM_TriggerCallback>:
 8001258:	4770      	bx	lr

0800125a <HAL_TIM_IRQHandler>:
 800125a:	6803      	ldr	r3, [r0, #0]
 800125c:	b510      	push	{r4, lr}
 800125e:	691a      	ldr	r2, [r3, #16]
 8001260:	4604      	mov	r4, r0
 8001262:	0791      	lsls	r1, r2, #30
 8001264:	d50e      	bpl.n	8001284 <HAL_TIM_IRQHandler+0x2a>
 8001266:	68da      	ldr	r2, [r3, #12]
 8001268:	0792      	lsls	r2, r2, #30
 800126a:	d50b      	bpl.n	8001284 <HAL_TIM_IRQHandler+0x2a>
 800126c:	f06f 0202 	mvn.w	r2, #2
 8001270:	611a      	str	r2, [r3, #16]
 8001272:	2201      	movs	r2, #1
 8001274:	699b      	ldr	r3, [r3, #24]
 8001276:	7702      	strb	r2, [r0, #28]
 8001278:	079b      	lsls	r3, r3, #30
 800127a:	d077      	beq.n	800136c <HAL_TIM_IRQHandler+0x112>
 800127c:	f7ff ffea 	bl	8001254 <HAL_TIM_IC_CaptureCallback>
 8001280:	2300      	movs	r3, #0
 8001282:	7723      	strb	r3, [r4, #28]
 8001284:	6823      	ldr	r3, [r4, #0]
 8001286:	691a      	ldr	r2, [r3, #16]
 8001288:	0750      	lsls	r0, r2, #29
 800128a:	d510      	bpl.n	80012ae <HAL_TIM_IRQHandler+0x54>
 800128c:	68da      	ldr	r2, [r3, #12]
 800128e:	0751      	lsls	r1, r2, #29
 8001290:	d50d      	bpl.n	80012ae <HAL_TIM_IRQHandler+0x54>
 8001292:	f06f 0204 	mvn.w	r2, #4
 8001296:	611a      	str	r2, [r3, #16]
 8001298:	2202      	movs	r2, #2
 800129a:	699b      	ldr	r3, [r3, #24]
 800129c:	7722      	strb	r2, [r4, #28]
 800129e:	f413 7f40 	tst.w	r3, #768	; 0x300
 80012a2:	4620      	mov	r0, r4
 80012a4:	d068      	beq.n	8001378 <HAL_TIM_IRQHandler+0x11e>
 80012a6:	f7ff ffd5 	bl	8001254 <HAL_TIM_IC_CaptureCallback>
 80012aa:	2300      	movs	r3, #0
 80012ac:	7723      	strb	r3, [r4, #28]
 80012ae:	6823      	ldr	r3, [r4, #0]
 80012b0:	691a      	ldr	r2, [r3, #16]
 80012b2:	0712      	lsls	r2, r2, #28
 80012b4:	d50f      	bpl.n	80012d6 <HAL_TIM_IRQHandler+0x7c>
 80012b6:	68da      	ldr	r2, [r3, #12]
 80012b8:	0710      	lsls	r0, r2, #28
 80012ba:	d50c      	bpl.n	80012d6 <HAL_TIM_IRQHandler+0x7c>
 80012bc:	f06f 0208 	mvn.w	r2, #8
 80012c0:	611a      	str	r2, [r3, #16]
 80012c2:	2204      	movs	r2, #4
 80012c4:	69db      	ldr	r3, [r3, #28]
 80012c6:	7722      	strb	r2, [r4, #28]
 80012c8:	0799      	lsls	r1, r3, #30
 80012ca:	4620      	mov	r0, r4
 80012cc:	d05a      	beq.n	8001384 <HAL_TIM_IRQHandler+0x12a>
 80012ce:	f7ff ffc1 	bl	8001254 <HAL_TIM_IC_CaptureCallback>
 80012d2:	2300      	movs	r3, #0
 80012d4:	7723      	strb	r3, [r4, #28]
 80012d6:	6823      	ldr	r3, [r4, #0]
 80012d8:	691a      	ldr	r2, [r3, #16]
 80012da:	06d2      	lsls	r2, r2, #27
 80012dc:	d510      	bpl.n	8001300 <HAL_TIM_IRQHandler+0xa6>
 80012de:	68da      	ldr	r2, [r3, #12]
 80012e0:	06d0      	lsls	r0, r2, #27
 80012e2:	d50d      	bpl.n	8001300 <HAL_TIM_IRQHandler+0xa6>
 80012e4:	f06f 0210 	mvn.w	r2, #16
 80012e8:	611a      	str	r2, [r3, #16]
 80012ea:	2208      	movs	r2, #8
 80012ec:	69db      	ldr	r3, [r3, #28]
 80012ee:	7722      	strb	r2, [r4, #28]
 80012f0:	f413 7f40 	tst.w	r3, #768	; 0x300
 80012f4:	4620      	mov	r0, r4
 80012f6:	d04b      	beq.n	8001390 <HAL_TIM_IRQHandler+0x136>
 80012f8:	f7ff ffac 	bl	8001254 <HAL_TIM_IC_CaptureCallback>
 80012fc:	2300      	movs	r3, #0
 80012fe:	7723      	strb	r3, [r4, #28]
 8001300:	6823      	ldr	r3, [r4, #0]
 8001302:	691a      	ldr	r2, [r3, #16]
 8001304:	07d1      	lsls	r1, r2, #31
 8001306:	d508      	bpl.n	800131a <HAL_TIM_IRQHandler+0xc0>
 8001308:	68da      	ldr	r2, [r3, #12]
 800130a:	07d2      	lsls	r2, r2, #31
 800130c:	d505      	bpl.n	800131a <HAL_TIM_IRQHandler+0xc0>
 800130e:	f06f 0201 	mvn.w	r2, #1
 8001312:	4620      	mov	r0, r4
 8001314:	611a      	str	r2, [r3, #16]
 8001316:	f7ff ff9b 	bl	8001250 <HAL_TIM_PeriodElapsedCallback>
 800131a:	6823      	ldr	r3, [r4, #0]
 800131c:	691a      	ldr	r2, [r3, #16]
 800131e:	0610      	lsls	r0, r2, #24
 8001320:	d508      	bpl.n	8001334 <HAL_TIM_IRQHandler+0xda>
 8001322:	68da      	ldr	r2, [r3, #12]
 8001324:	0611      	lsls	r1, r2, #24
 8001326:	d505      	bpl.n	8001334 <HAL_TIM_IRQHandler+0xda>
 8001328:	f06f 0280 	mvn.w	r2, #128	; 0x80
 800132c:	4620      	mov	r0, r4
 800132e:	611a      	str	r2, [r3, #16]
 8001330:	f000 f945 	bl	80015be <HAL_TIMEx_BreakCallback>
 8001334:	6823      	ldr	r3, [r4, #0]
 8001336:	691a      	ldr	r2, [r3, #16]
 8001338:	0652      	lsls	r2, r2, #25
 800133a:	d508      	bpl.n	800134e <HAL_TIM_IRQHandler+0xf4>
 800133c:	68da      	ldr	r2, [r3, #12]
 800133e:	0650      	lsls	r0, r2, #25
 8001340:	d505      	bpl.n	800134e <HAL_TIM_IRQHandler+0xf4>
 8001342:	f06f 0240 	mvn.w	r2, #64	; 0x40
 8001346:	4620      	mov	r0, r4
 8001348:	611a      	str	r2, [r3, #16]
 800134a:	f7ff ff85 	bl	8001258 <HAL_TIM_TriggerCallback>
 800134e:	6823      	ldr	r3, [r4, #0]
 8001350:	691a      	ldr	r2, [r3, #16]
 8001352:	0691      	lsls	r1, r2, #26
 8001354:	d522      	bpl.n	800139c <HAL_TIM_IRQHandler+0x142>
 8001356:	68da      	ldr	r2, [r3, #12]
 8001358:	0692      	lsls	r2, r2, #26
 800135a:	d51f      	bpl.n	800139c <HAL_TIM_IRQHandler+0x142>
 800135c:	f06f 0220 	mvn.w	r2, #32
 8001360:	4620      	mov	r0, r4
 8001362:	e8bd 4010 	ldmia.w	sp!, {r4, lr}
 8001366:	611a      	str	r2, [r3, #16]
 8001368:	f000 b928 	b.w	80015bc <HAL_TIMEx_CommutCallback>
 800136c:	f7ff ff71 	bl	8001252 <HAL_TIM_OC_DelayElapsedCallback>
 8001370:	4620      	mov	r0, r4
 8001372:	f7ff ff70 	bl	8001256 <HAL_TIM_PWM_PulseFinishedCallback>
 8001376:	e783      	b.n	8001280 <HAL_TIM_IRQHandler+0x26>
 8001378:	f7ff ff6b 	bl	8001252 <HAL_TIM_OC_DelayElapsedCallback>
 800137c:	4620      	mov	r0, r4
 800137e:	f7ff ff6a 	bl	8001256 <HAL_TIM_PWM_PulseFinishedCallback>
 8001382:	e792      	b.n	80012aa <HAL_TIM_IRQHandler+0x50>
 8001384:	f7ff ff65 	bl	8001252 <HAL_TIM_OC_DelayElapsedCallback>
 8001388:	4620      	mov	r0, r4
 800138a:	f7ff ff64 	bl	8001256 <HAL_TIM_PWM_PulseFinishedCallback>
 800138e:	e7a0      	b.n	80012d2 <HAL_TIM_IRQHandler+0x78>
 8001390:	f7ff ff5f 	bl	8001252 <HAL_TIM_OC_DelayElapsedCallback>
 8001394:	4620      	mov	r0, r4
 8001396:	f7ff ff5e 	bl	8001256 <HAL_TIM_PWM_PulseFinishedCallback>
 800139a:	e7af      	b.n	80012fc <HAL_TIM_IRQHandler+0xa2>
 800139c:	bd10      	pop	{r4, pc}
	...

080013a0 <TIM_Base_SetConfig>:
 80013a0:	4a1a      	ldr	r2, [pc, #104]	; (800140c <TIM_Base_SetConfig+0x6c>)
 80013a2:	6803      	ldr	r3, [r0, #0]
 80013a4:	4290      	cmp	r0, r2
 80013a6:	d00a      	beq.n	80013be <TIM_Base_SetConfig+0x1e>
 80013a8:	f1b0 4f80 	cmp.w	r0, #1073741824	; 0x40000000
 80013ac:	d007      	beq.n	80013be <TIM_Base_SetConfig+0x1e>
 80013ae:	f5a2 3294 	sub.w	r2, r2, #75776	; 0x12800
 80013b2:	4290      	cmp	r0, r2
 80013b4:	d003      	beq.n	80013be <TIM_Base_SetConfig+0x1e>
 80013b6:	f502 6280 	add.w	r2, r2, #1024	; 0x400
 80013ba:	4290      	cmp	r0, r2
 80013bc:	d115      	bne.n	80013ea <TIM_Base_SetConfig+0x4a>
 80013be:	684a      	ldr	r2, [r1, #4]
 80013c0:	f023 0370 	bic.w	r3, r3, #112	; 0x70
 80013c4:	4313      	orrs	r3, r2
 80013c6:	4a11      	ldr	r2, [pc, #68]	; (800140c <TIM_Base_SetConfig+0x6c>)
 80013c8:	4290      	cmp	r0, r2
 80013ca:	d00a      	beq.n	80013e2 <TIM_Base_SetConfig+0x42>
 80013cc:	f1b0 4f80 	cmp.w	r0, #1073741824	; 0x40000000
 80013d0:	d007      	beq.n	80013e2 <TIM_Base_SetConfig+0x42>
 80013d2:	f5a2 3294 	sub.w	r2, r2, #75776	; 0x12800
 80013d6:	4290      	cmp	r0, r2
 80013d8:	d003      	beq.n	80013e2 <TIM_Base_SetConfig+0x42>
 80013da:	f502 6280 	add.w	r2, r2, #1024	; 0x400
 80013de:	4290      	cmp	r0, r2
 80013e0:	d103      	bne.n	80013ea <TIM_Base_SetConfig+0x4a>
 80013e2:	68ca      	ldr	r2, [r1, #12]
 80013e4:	f423 7340 	bic.w	r3, r3, #768	; 0x300
 80013e8:	4313      	orrs	r3, r2
 80013ea:	694a      	ldr	r2, [r1, #20]
 80013ec:	f023 0380 	bic.w	r3, r3, #128	; 0x80
 80013f0:	4313      	orrs	r3, r2
 80013f2:	6003      	str	r3, [r0, #0]
 80013f4:	688b      	ldr	r3, [r1, #8]
 80013f6:	62c3      	str	r3, [r0, #44]	; 0x2c
 80013f8:	680b      	ldr	r3, [r1, #0]
 80013fa:	6283      	str	r3, [r0, #40]	; 0x28
 80013fc:	4b03      	ldr	r3, [pc, #12]	; (800140c <TIM_Base_SetConfig+0x6c>)
 80013fe:	4298      	cmp	r0, r3
 8001400:	bf04      	itt	eq
 8001402:	690b      	ldreq	r3, [r1, #16]
 8001404:	6303      	streq	r3, [r0, #48]	; 0x30
 8001406:	2301      	movs	r3, #1
 8001408:	6143      	str	r3, [r0, #20]
 800140a:	4770      	bx	lr
 800140c:	40012c00 	.word	0x40012c00

08001410 <HAL_TIM_Base_Init>:
 8001410:	b510      	push	{r4, lr}
 8001412:	4604      	mov	r4, r0
 8001414:	b1a0      	cbz	r0, 8001440 <HAL_TIM_Base_Init+0x30>
 8001416:	f890 303d 	ldrb.w	r3, [r0, #61]	; 0x3d
 800141a:	f003 02ff 	and.w	r2, r3, #255	; 0xff
 800141e:	b91b      	cbnz	r3, 8001428 <HAL_TIM_Base_Init+0x18>
 8001420:	f880 203c 	strb.w	r2, [r0, #60]	; 0x3c
 8001424:	f001 fb0e 	bl	8002a44 <HAL_TIM_Base_MspInit>
 8001428:	2302      	movs	r3, #2
 800142a:	6820      	ldr	r0, [r4, #0]
 800142c:	f884 303d 	strb.w	r3, [r4, #61]	; 0x3d
 8001430:	1d21      	adds	r1, r4, #4
 8001432:	f7ff ffb5 	bl	80013a0 <TIM_Base_SetConfig>
 8001436:	2301      	movs	r3, #1
 8001438:	2000      	movs	r0, #0
 800143a:	f884 303d 	strb.w	r3, [r4, #61]	; 0x3d
 800143e:	bd10      	pop	{r4, pc}
 8001440:	2001      	movs	r0, #1
 8001442:	bd10      	pop	{r4, pc}

08001444 <TIM_ETR_SetConfig>:
 8001444:	b510      	push	{r4, lr}
 8001446:	6884      	ldr	r4, [r0, #8]
 8001448:	430a      	orrs	r2, r1
 800144a:	f424 447f 	bic.w	r4, r4, #65280	; 0xff00
 800144e:	ea42 2303 	orr.w	r3, r2, r3, lsl #8
 8001452:	4323      	orrs	r3, r4
 8001454:	6083      	str	r3, [r0, #8]
 8001456:	bd10      	pop	{r4, pc}

08001458 <HAL_TIM_ConfigClockSource>:
 8001458:	f890 303c 	ldrb.w	r3, [r0, #60]	; 0x3c
 800145c:	b570      	push	{r4, r5, r6, lr}
 800145e:	2b01      	cmp	r3, #1
 8001460:	4604      	mov	r4, r0
 8001462:	f04f 0002 	mov.w	r0, #2
 8001466:	d019      	beq.n	800149c <HAL_TIM_ConfigClockSource+0x44>
 8001468:	2301      	movs	r3, #1
 800146a:	f884 003d 	strb.w	r0, [r4, #61]	; 0x3d
 800146e:	6820      	ldr	r0, [r4, #0]
 8001470:	f884 303c 	strb.w	r3, [r4, #60]	; 0x3c
 8001474:	6883      	ldr	r3, [r0, #8]
 8001476:	f423 437f 	bic.w	r3, r3, #65280	; 0xff00
 800147a:	f023 0377 	bic.w	r3, r3, #119	; 0x77
 800147e:	6083      	str	r3, [r0, #8]
 8001480:	680b      	ldr	r3, [r1, #0]
 8001482:	2b40      	cmp	r3, #64	; 0x40
 8001484:	d065      	beq.n	8001552 <HAL_TIM_ConfigClockSource+0xfa>
 8001486:	d815      	bhi.n	80014b4 <HAL_TIM_ConfigClockSource+0x5c>
 8001488:	2b10      	cmp	r3, #16
 800148a:	d00c      	beq.n	80014a6 <HAL_TIM_ConfigClockSource+0x4e>
 800148c:	d807      	bhi.n	800149e <HAL_TIM_ConfigClockSource+0x46>
 800148e:	b153      	cbz	r3, 80014a6 <HAL_TIM_ConfigClockSource+0x4e>
 8001490:	2301      	movs	r3, #1
 8001492:	2000      	movs	r0, #0
 8001494:	f884 303d 	strb.w	r3, [r4, #61]	; 0x3d
 8001498:	f884 003c 	strb.w	r0, [r4, #60]	; 0x3c
 800149c:	bd70      	pop	{r4, r5, r6, pc}
 800149e:	2b20      	cmp	r3, #32
 80014a0:	d001      	beq.n	80014a6 <HAL_TIM_ConfigClockSource+0x4e>
 80014a2:	2b30      	cmp	r3, #48	; 0x30
 80014a4:	d1f4      	bne.n	8001490 <HAL_TIM_ConfigClockSource+0x38>
 80014a6:	6882      	ldr	r2, [r0, #8]
 80014a8:	f043 0307 	orr.w	r3, r3, #7
 80014ac:	f022 0270 	bic.w	r2, r2, #112	; 0x70
 80014b0:	4313      	orrs	r3, r2
 80014b2:	e01a      	b.n	80014ea <HAL_TIM_ConfigClockSource+0x92>
 80014b4:	2b60      	cmp	r3, #96	; 0x60
 80014b6:	d034      	beq.n	8001522 <HAL_TIM_ConfigClockSource+0xca>
 80014b8:	d819      	bhi.n	80014ee <HAL_TIM_ConfigClockSource+0x96>
 80014ba:	2b50      	cmp	r3, #80	; 0x50
 80014bc:	d1e8      	bne.n	8001490 <HAL_TIM_ConfigClockSource+0x38>
 80014be:	684a      	ldr	r2, [r1, #4]
 80014c0:	68ce      	ldr	r6, [r1, #12]
 80014c2:	6a01      	ldr	r1, [r0, #32]
 80014c4:	6a05      	ldr	r5, [r0, #32]
 80014c6:	f021 010a 	bic.w	r1, r1, #10
 80014ca:	f025 0501 	bic.w	r5, r5, #1
 80014ce:	6205      	str	r5, [r0, #32]
 80014d0:	6983      	ldr	r3, [r0, #24]
 80014d2:	430a      	orrs	r2, r1
 80014d4:	f023 03f0 	bic.w	r3, r3, #240	; 0xf0
 80014d8:	ea43 1306 	orr.w	r3, r3, r6, lsl #4
 80014dc:	6183      	str	r3, [r0, #24]
 80014de:	6202      	str	r2, [r0, #32]
 80014e0:	6883      	ldr	r3, [r0, #8]
 80014e2:	f023 0370 	bic.w	r3, r3, #112	; 0x70
 80014e6:	f043 0357 	orr.w	r3, r3, #87	; 0x57
 80014ea:	6083      	str	r3, [r0, #8]
 80014ec:	e7d0      	b.n	8001490 <HAL_TIM_ConfigClockSource+0x38>
 80014ee:	2b70      	cmp	r3, #112	; 0x70
 80014f0:	d00c      	beq.n	800150c <HAL_TIM_ConfigClockSource+0xb4>
 80014f2:	f5b3 5f00 	cmp.w	r3, #8192	; 0x2000
 80014f6:	d1cb      	bne.n	8001490 <HAL_TIM_ConfigClockSource+0x38>
 80014f8:	68cb      	ldr	r3, [r1, #12]
 80014fa:	684a      	ldr	r2, [r1, #4]
 80014fc:	6889      	ldr	r1, [r1, #8]
 80014fe:	f7ff ffa1 	bl	8001444 <TIM_ETR_SetConfig>
 8001502:	6822      	ldr	r2, [r4, #0]
 8001504:	6893      	ldr	r3, [r2, #8]
 8001506:	f443 4380 	orr.w	r3, r3, #16384	; 0x4000
 800150a:	e008      	b.n	800151e <HAL_TIM_ConfigClockSource+0xc6>
 800150c:	68cb      	ldr	r3, [r1, #12]
 800150e:	684a      	ldr	r2, [r1, #4]
 8001510:	6889      	ldr	r1, [r1, #8]
 8001512:	f7ff ff97 	bl	8001444 <TIM_ETR_SetConfig>
 8001516:	6822      	ldr	r2, [r4, #0]
 8001518:	6893      	ldr	r3, [r2, #8]
 800151a:	f043 0377 	orr.w	r3, r3, #119	; 0x77
 800151e:	6093      	str	r3, [r2, #8]
 8001520:	e7b6      	b.n	8001490 <HAL_TIM_ConfigClockSource+0x38>
 8001522:	684d      	ldr	r5, [r1, #4]
 8001524:	68ce      	ldr	r6, [r1, #12]
 8001526:	6a01      	ldr	r1, [r0, #32]
 8001528:	f021 0110 	bic.w	r1, r1, #16
 800152c:	6201      	str	r1, [r0, #32]
 800152e:	6982      	ldr	r2, [r0, #24]
 8001530:	6a03      	ldr	r3, [r0, #32]
 8001532:	f422 4270 	bic.w	r2, r2, #61440	; 0xf000
 8001536:	f023 03a0 	bic.w	r3, r3, #160	; 0xa0
 800153a:	ea43 1305 	orr.w	r3, r3, r5, lsl #4
 800153e:	ea42 3206 	orr.w	r2, r2, r6, lsl #12
 8001542:	6182      	str	r2, [r0, #24]
 8001544:	6203      	str	r3, [r0, #32]
 8001546:	6883      	ldr	r3, [r0, #8]
 8001548:	f023 0370 	bic.w	r3, r3, #112	; 0x70
 800154c:	f043 0367 	orr.w	r3, r3, #103	; 0x67
 8001550:	e7cb      	b.n	80014ea <HAL_TIM_ConfigClockSource+0x92>
 8001552:	684a      	ldr	r2, [r1, #4]
 8001554:	68ce      	ldr	r6, [r1, #12]
 8001556:	6a01      	ldr	r1, [r0, #32]
 8001558:	6a05      	ldr	r5, [r0, #32]
 800155a:	f021 010a 	bic.w	r1, r1, #10
 800155e:	f025 0501 	bic.w	r5, r5, #1
 8001562:	6205      	str	r5, [r0, #32]
 8001564:	6983      	ldr	r3, [r0, #24]
 8001566:	430a      	orrs	r2, r1
 8001568:	f023 03f0 	bic.w	r3, r3, #240	; 0xf0
 800156c:	ea43 1306 	orr.w	r3, r3, r6, lsl #4
 8001570:	6183      	str	r3, [r0, #24]
 8001572:	6202      	str	r2, [r0, #32]
 8001574:	6883      	ldr	r3, [r0, #8]
 8001576:	f023 0370 	bic.w	r3, r3, #112	; 0x70
 800157a:	f043 0347 	orr.w	r3, r3, #71	; 0x47
 800157e:	e7b4      	b.n	80014ea <HAL_TIM_ConfigClockSource+0x92>

08001580 <HAL_TIMEx_MasterConfigSynchronization>:
 8001580:	f890 303c 	ldrb.w	r3, [r0, #60]	; 0x3c
 8001584:	b530      	push	{r4, r5, lr}
 8001586:	2b01      	cmp	r3, #1
 8001588:	f04f 0302 	mov.w	r3, #2
 800158c:	d014      	beq.n	80015b8 <HAL_TIMEx_MasterConfigSynchronization+0x38>
 800158e:	6804      	ldr	r4, [r0, #0]
 8001590:	f880 303d 	strb.w	r3, [r0, #61]	; 0x3d
 8001594:	6862      	ldr	r2, [r4, #4]
 8001596:	68a3      	ldr	r3, [r4, #8]
 8001598:	680d      	ldr	r5, [r1, #0]
 800159a:	6849      	ldr	r1, [r1, #4]
 800159c:	f022 0270 	bic.w	r2, r2, #112	; 0x70
 80015a0:	f023 0380 	bic.w	r3, r3, #128	; 0x80
 80015a4:	430b      	orrs	r3, r1
 80015a6:	432a      	orrs	r2, r5
 80015a8:	6062      	str	r2, [r4, #4]
 80015aa:	60a3      	str	r3, [r4, #8]
 80015ac:	2301      	movs	r3, #1
 80015ae:	f880 303d 	strb.w	r3, [r0, #61]	; 0x3d
 80015b2:	2300      	movs	r3, #0
 80015b4:	f880 303c 	strb.w	r3, [r0, #60]	; 0x3c
 80015b8:	4618      	mov	r0, r3
 80015ba:	bd30      	pop	{r4, r5, pc}

080015bc <HAL_TIMEx_CommutCallback>:
 80015bc:	4770      	bx	lr

080015be <HAL_TIMEx_BreakCallback>:
 80015be:	4770      	bx	lr

080015c0 <USB_CoreInit>:
 80015c0:	b084      	sub	sp, #16
 80015c2:	a801      	add	r0, sp, #4
 80015c4:	e880 000e 	stmia.w	r0, {r1, r2, r3}
 80015c8:	b004      	add	sp, #16
 80015ca:	2000      	movs	r0, #0
 80015cc:	4770      	bx	lr

080015ce <USB_EnableGlobalInt>:
 80015ce:	f8b0 3040 	ldrh.w	r3, [r0, #64]	; 0x40
 80015d2:	b29b      	uxth	r3, r3
 80015d4:	f443 433f 	orr.w	r3, r3, #48896	; 0xbf00
 80015d8:	f8a0 3040 	strh.w	r3, [r0, #64]	; 0x40
 80015dc:	2000      	movs	r0, #0
 80015de:	4770      	bx	lr

080015e0 <USB_DisableGlobalInt>:
 80015e0:	f8b0 3040 	ldrh.w	r3, [r0, #64]	; 0x40
 80015e4:	f423 537c 	bic.w	r3, r3, #16128	; 0x3f00
 80015e8:	045b      	lsls	r3, r3, #17
 80015ea:	0c5b      	lsrs	r3, r3, #17
 80015ec:	f8a0 3040 	strh.w	r3, [r0, #64]	; 0x40
 80015f0:	2000      	movs	r0, #0
 80015f2:	4770      	bx	lr

080015f4 <USB_SetCurrentMode>:
 80015f4:	2000      	movs	r0, #0
 80015f6:	4770      	bx	lr

080015f8 <USB_DevInit>:
 80015f8:	b084      	sub	sp, #16
 80015fa:	b510      	push	{r4, lr}
 80015fc:	ac03      	add	r4, sp, #12
 80015fe:	e884 000e 	stmia.w	r4, {r1, r2, r3}
 8001602:	e8bd 4010 	ldmia.w	sp!, {r4, lr}
 8001606:	2200      	movs	r2, #0
 8001608:	2301      	movs	r3, #1
 800160a:	f8a0 3040 	strh.w	r3, [r0, #64]	; 0x40
 800160e:	f8a0 2040 	strh.w	r2, [r0, #64]	; 0x40
 8001612:	f8a0 2044 	strh.w	r2, [r0, #68]	; 0x44
 8001616:	f8a0 2050 	strh.w	r2, [r0, #80]	; 0x50
 800161a:	f8b0 3040 	ldrh.w	r3, [r0, #64]	; 0x40
 800161e:	b004      	add	sp, #16
 8001620:	b29b      	uxth	r3, r3
 8001622:	f443 433f 	orr.w	r3, r3, #48896	; 0xbf00
 8001626:	f8a0 3040 	strh.w	r3, [r0, #64]	; 0x40
 800162a:	4610      	mov	r0, r2
 800162c:	4770      	bx	lr
	...

08001630 <USB_ActivateEndpoint>:
 8001630:	b5f0      	push	{r4, r5, r6, r7, lr}
 8001632:	780d      	ldrb	r5, [r1, #0]
 8001634:	4603      	mov	r3, r0
 8001636:	f830 2025 	ldrh.w	r2, [r0, r5, lsl #2]
 800163a:	78c8      	ldrb	r0, [r1, #3]
 800163c:	f422 42ec 	bic.w	r2, r2, #30208	; 0x7600
 8001640:	f022 0270 	bic.w	r2, r2, #112	; 0x70
 8001644:	0412      	lsls	r2, r2, #16
 8001646:	0c12      	lsrs	r2, r2, #16
 8001648:	2803      	cmp	r0, #3
 800164a:	d84e      	bhi.n	80016ea <USB_ActivateEndpoint+0xba>
 800164c:	e8df f000 	tbb	[pc, r0]
 8001650:	47044a02 	.word	0x47044a02
 8001654:	f442 7200 	orr.w	r2, r2, #512	; 0x200
 8001658:	2000      	movs	r0, #0
 800165a:	f248 0480 	movw	r4, #32896	; 0x8080
 800165e:	4322      	orrs	r2, r4
 8001660:	f823 2025 	strh.w	r2, [r3, r5, lsl #2]
 8001664:	780e      	ldrb	r6, [r1, #0]
 8001666:	4dab      	ldr	r5, [pc, #684]	; (8001914 <USB_ActivateEndpoint+0x2e4>)
 8001668:	f833 2026 	ldrh.w	r2, [r3, r6, lsl #2]
 800166c:	4334      	orrs	r4, r6
 800166e:	b292      	uxth	r2, r2
 8001670:	402a      	ands	r2, r5
 8001672:	4322      	orrs	r2, r4
 8001674:	f823 2026 	strh.w	r2, [r3, r6, lsl #2]
 8001678:	7b0c      	ldrb	r4, [r1, #12]
 800167a:	780a      	ldrb	r2, [r1, #0]
 800167c:	2c00      	cmp	r4, #0
 800167e:	f040 8088 	bne.w	8001792 <USB_ActivateEndpoint+0x162>
 8001682:	784e      	ldrb	r6, [r1, #1]
 8001684:	88cc      	ldrh	r4, [r1, #6]
 8001686:	b396      	cbz	r6, 80016ee <USB_ActivateEndpoint+0xbe>
 8001688:	f8b3 6050 	ldrh.w	r6, [r3, #80]	; 0x50
 800168c:	eb03 1202 	add.w	r2, r3, r2, lsl #4
 8001690:	f024 0401 	bic.w	r4, r4, #1
 8001694:	b2b6      	uxth	r6, r6
 8001696:	f502 6280 	add.w	r2, r2, #1024	; 0x400
 800169a:	b2a4      	uxth	r4, r4
 800169c:	5394      	strh	r4, [r2, r6]
 800169e:	780c      	ldrb	r4, [r1, #0]
 80016a0:	f833 2024 	ldrh.w	r2, [r3, r4, lsl #2]
 80016a4:	0656      	lsls	r6, r2, #25
 80016a6:	d509      	bpl.n	80016bc <USB_ActivateEndpoint+0x8c>
 80016a8:	f833 2024 	ldrh.w	r2, [r3, r4, lsl #2]
 80016ac:	b292      	uxth	r2, r2
 80016ae:	402a      	ands	r2, r5
 80016b0:	f442 4200 	orr.w	r2, r2, #32768	; 0x8000
 80016b4:	f042 02c0 	orr.w	r2, r2, #192	; 0xc0
 80016b8:	f823 2024 	strh.w	r2, [r3, r4, lsl #2]
 80016bc:	78ca      	ldrb	r2, [r1, #3]
 80016be:	7809      	ldrb	r1, [r1, #0]
 80016c0:	2a01      	cmp	r2, #1
 80016c2:	f833 2021 	ldrh.w	r2, [r3, r1, lsl #2]
 80016c6:	4c94      	ldr	r4, [pc, #592]	; (8001918 <USB_ActivateEndpoint+0x2e8>)
 80016c8:	b292      	uxth	r2, r2
 80016ca:	ea02 0204 	and.w	r2, r2, r4
 80016ce:	d001      	beq.n	80016d4 <USB_ActivateEndpoint+0xa4>
 80016d0:	f082 0220 	eor.w	r2, r2, #32
 80016d4:	f442 4200 	orr.w	r2, r2, #32768	; 0x8000
 80016d8:	f042 0280 	orr.w	r2, r2, #128	; 0x80
 80016dc:	e0cb      	b.n	8001876 <USB_ActivateEndpoint+0x246>
 80016de:	f442 62c0 	orr.w	r2, r2, #1536	; 0x600
 80016e2:	e7b9      	b.n	8001658 <USB_ActivateEndpoint+0x28>
 80016e4:	f442 6280 	orr.w	r2, r2, #1024	; 0x400
 80016e8:	e7b6      	b.n	8001658 <USB_ActivateEndpoint+0x28>
 80016ea:	2001      	movs	r0, #1
 80016ec:	e7b5      	b.n	800165a <USB_ActivateEndpoint+0x2a>
 80016ee:	f8b3 5050 	ldrh.w	r5, [r3, #80]	; 0x50
 80016f2:	eb03 1202 	add.w	r2, r3, r2, lsl #4
 80016f6:	f024 0401 	bic.w	r4, r4, #1
 80016fa:	b2ad      	uxth	r5, r5
 80016fc:	f502 6281 	add.w	r2, r2, #1032	; 0x408
 8001700:	b2a4      	uxth	r4, r4
 8001702:	5354      	strh	r4, [r2, r5]
 8001704:	780a      	ldrb	r2, [r1, #0]
 8001706:	f8b3 6050 	ldrh.w	r6, [r3, #80]	; 0x50
 800170a:	690d      	ldr	r5, [r1, #16]
 800170c:	eb03 1202 	add.w	r2, r3, r2, lsl #4
 8001710:	b2b6      	uxth	r6, r6
 8001712:	f202 420c 	addw	r2, r2, #1036	; 0x40c
 8001716:	bb5d      	cbnz	r5, 8001770 <USB_ActivateEndpoint+0x140>
 8001718:	5b94      	ldrh	r4, [r2, r6]
 800171a:	f424 44f8 	bic.w	r4, r4, #31744	; 0x7c00
 800171e:	0424      	lsls	r4, r4, #16
 8001720:	0c24      	lsrs	r4, r4, #16
 8001722:	5394      	strh	r4, [r2, r6]
 8001724:	5b94      	ldrh	r4, [r2, r6]
 8001726:	ea6f 4444 	mvn.w	r4, r4, lsl #17
 800172a:	ea6f 4454 	mvn.w	r4, r4, lsr #17
 800172e:	b2a4      	uxth	r4, r4
 8001730:	5394      	strh	r4, [r2, r6]
 8001732:	780c      	ldrb	r4, [r1, #0]
 8001734:	f833 2024 	ldrh.w	r2, [r3, r4, lsl #2]
 8001738:	0455      	lsls	r5, r2, #17
 800173a:	d50d      	bpl.n	8001758 <USB_ActivateEndpoint+0x128>
 800173c:	f833 2024 	ldrh.w	r2, [r3, r4, lsl #2]
 8001740:	f422 42e0 	bic.w	r2, r2, #28672	; 0x7000
 8001744:	f022 0270 	bic.w	r2, r2, #112	; 0x70
 8001748:	0412      	lsls	r2, r2, #16
 800174a:	0c12      	lsrs	r2, r2, #16
 800174c:	f442 4240 	orr.w	r2, r2, #49152	; 0xc000
 8001750:	f042 0280 	orr.w	r2, r2, #128	; 0x80
 8001754:	f823 2024 	strh.w	r2, [r3, r4, lsl #2]
 8001758:	7809      	ldrb	r1, [r1, #0]
 800175a:	f833 2021 	ldrh.w	r2, [r3, r1, lsl #2]
 800175e:	f422 4280 	bic.w	r2, r2, #16384	; 0x4000
 8001762:	f022 0270 	bic.w	r2, r2, #112	; 0x70
 8001766:	0412      	lsls	r2, r2, #16
 8001768:	0c12      	lsrs	r2, r2, #16
 800176a:	f482 5240 	eor.w	r2, r2, #12288	; 0x3000
 800176e:	e7b1      	b.n	80016d4 <USB_ActivateEndpoint+0xa4>
 8001770:	2d3e      	cmp	r5, #62	; 0x3e
 8001772:	d805      	bhi.n	8001780 <USB_ActivateEndpoint+0x150>
 8001774:	086c      	lsrs	r4, r5, #1
 8001776:	07ed      	lsls	r5, r5, #31
 8001778:	bf48      	it	mi
 800177a:	3401      	addmi	r4, #1
 800177c:	02a4      	lsls	r4, r4, #10
 800177e:	e7d6      	b.n	800172e <USB_ActivateEndpoint+0xfe>
 8001780:	096f      	lsrs	r7, r5, #5
 8001782:	06ec      	lsls	r4, r5, #27
 8001784:	4c65      	ldr	r4, [pc, #404]	; (800191c <USB_ActivateEndpoint+0x2ec>)
 8001786:	bf08      	it	eq
 8001788:	f107 37ff 	addeq.w	r7, r7, #4294967295
 800178c:	ea44 2487 	orr.w	r4, r4, r7, lsl #10
 8001790:	e7cd      	b.n	800172e <USB_ActivateEndpoint+0xfe>
 8001792:	f833 4022 	ldrh.w	r4, [r3, r2, lsl #2]
 8001796:	b2a4      	uxth	r4, r4
 8001798:	402c      	ands	r4, r5
 800179a:	f444 4401 	orr.w	r4, r4, #33024	; 0x8100
 800179e:	f044 0480 	orr.w	r4, r4, #128	; 0x80
 80017a2:	f823 4022 	strh.w	r4, [r3, r2, lsl #2]
 80017a6:	780a      	ldrb	r2, [r1, #0]
 80017a8:	890c      	ldrh	r4, [r1, #8]
 80017aa:	f8b3 6050 	ldrh.w	r6, [r3, #80]	; 0x50
 80017ae:	eb03 1202 	add.w	r2, r3, r2, lsl #4
 80017b2:	f024 0401 	bic.w	r4, r4, #1
 80017b6:	b2b6      	uxth	r6, r6
 80017b8:	f502 6280 	add.w	r2, r2, #1024	; 0x400
 80017bc:	b2a4      	uxth	r4, r4
 80017be:	5394      	strh	r4, [r2, r6]
 80017c0:	780a      	ldrb	r2, [r1, #0]
 80017c2:	894c      	ldrh	r4, [r1, #10]
 80017c4:	f8b3 6050 	ldrh.w	r6, [r3, #80]	; 0x50
 80017c8:	eb03 1202 	add.w	r2, r3, r2, lsl #4
 80017cc:	f024 0401 	bic.w	r4, r4, #1
 80017d0:	f502 6281 	add.w	r2, r2, #1032	; 0x408
 80017d4:	b2a4      	uxth	r4, r4
 80017d6:	b2b6      	uxth	r6, r6
 80017d8:	5394      	strh	r4, [r2, r6]
 80017da:	784a      	ldrb	r2, [r1, #1]
 80017dc:	780c      	ldrb	r4, [r1, #0]
 80017de:	2a00      	cmp	r2, #0
 80017e0:	d14c      	bne.n	800187c <USB_ActivateEndpoint+0x24c>
 80017e2:	f833 2024 	ldrh.w	r2, [r3, r4, lsl #2]
 80017e6:	0452      	lsls	r2, r2, #17
 80017e8:	d509      	bpl.n	80017fe <USB_ActivateEndpoint+0x1ce>
 80017ea:	f833 2024 	ldrh.w	r2, [r3, r4, lsl #2]
 80017ee:	b292      	uxth	r2, r2
 80017f0:	402a      	ands	r2, r5
 80017f2:	f442 4240 	orr.w	r2, r2, #49152	; 0xc000
 80017f6:	f042 0280 	orr.w	r2, r2, #128	; 0x80
 80017fa:	f823 2024 	strh.w	r2, [r3, r4, lsl #2]
 80017fe:	780c      	ldrb	r4, [r1, #0]
 8001800:	f833 2024 	ldrh.w	r2, [r3, r4, lsl #2]
 8001804:	0657      	lsls	r7, r2, #25
 8001806:	d50d      	bpl.n	8001824 <USB_ActivateEndpoint+0x1f4>
 8001808:	f833 2024 	ldrh.w	r2, [r3, r4, lsl #2]
 800180c:	f422 42e0 	bic.w	r2, r2, #28672	; 0x7000
 8001810:	f022 0270 	bic.w	r2, r2, #112	; 0x70
 8001814:	0412      	lsls	r2, r2, #16
 8001816:	0c12      	lsrs	r2, r2, #16
 8001818:	f442 4200 	orr.w	r2, r2, #32768	; 0x8000
 800181c:	f042 02c0 	orr.w	r2, r2, #192	; 0xc0
 8001820:	f823 2024 	strh.w	r2, [r3, r4, lsl #2]
 8001824:	780c      	ldrb	r4, [r1, #0]
 8001826:	f833 2024 	ldrh.w	r2, [r3, r4, lsl #2]
 800182a:	f422 42e0 	bic.w	r2, r2, #28672	; 0x7000
 800182e:	f022 0270 	bic.w	r2, r2, #112	; 0x70
 8001832:	0412      	lsls	r2, r2, #16
 8001834:	0c12      	lsrs	r2, r2, #16
 8001836:	f442 4200 	orr.w	r2, r2, #32768	; 0x8000
 800183a:	f042 02c0 	orr.w	r2, r2, #192	; 0xc0
 800183e:	f823 2024 	strh.w	r2, [r3, r4, lsl #2]
 8001842:	f248 0480 	movw	r4, #32896	; 0x8080
 8001846:	780d      	ldrb	r5, [r1, #0]
 8001848:	f833 2025 	ldrh.w	r2, [r3, r5, lsl #2]
 800184c:	f422 4280 	bic.w	r2, r2, #16384	; 0x4000
 8001850:	f022 0270 	bic.w	r2, r2, #112	; 0x70
 8001854:	0412      	lsls	r2, r2, #16
 8001856:	0c12      	lsrs	r2, r2, #16
 8001858:	f482 5240 	eor.w	r2, r2, #12288	; 0x3000
 800185c:	4322      	orrs	r2, r4
 800185e:	f823 2025 	strh.w	r2, [r3, r5, lsl #2]
 8001862:	7809      	ldrb	r1, [r1, #0]
 8001864:	f833 2021 	ldrh.w	r2, [r3, r1, lsl #2]
 8001868:	f422 42e0 	bic.w	r2, r2, #28672	; 0x7000
 800186c:	f022 0240 	bic.w	r2, r2, #64	; 0x40
 8001870:	0412      	lsls	r2, r2, #16
 8001872:	0c12      	lsrs	r2, r2, #16
 8001874:	4322      	orrs	r2, r4
 8001876:	f823 2021 	strh.w	r2, [r3, r1, lsl #2]
 800187a:	bdf0      	pop	{r4, r5, r6, r7, pc}
 800187c:	f833 2024 	ldrh.w	r2, [r3, r4, lsl #2]
 8001880:	0456      	lsls	r6, r2, #17
 8001882:	d509      	bpl.n	8001898 <USB_ActivateEndpoint+0x268>
 8001884:	f833 2024 	ldrh.w	r2, [r3, r4, lsl #2]
 8001888:	b292      	uxth	r2, r2
 800188a:	402a      	ands	r2, r5
 800188c:	f442 4240 	orr.w	r2, r2, #49152	; 0xc000
 8001890:	f042 0280 	orr.w	r2, r2, #128	; 0x80
 8001894:	f823 2024 	strh.w	r2, [r3, r4, lsl #2]
 8001898:	780c      	ldrb	r4, [r1, #0]
 800189a:	f833 2024 	ldrh.w	r2, [r3, r4, lsl #2]
 800189e:	0652      	lsls	r2, r2, #25
 80018a0:	d50d      	bpl.n	80018be <USB_ActivateEndpoint+0x28e>
 80018a2:	f833 2024 	ldrh.w	r2, [r3, r4, lsl #2]
 80018a6:	f422 42e0 	bic.w	r2, r2, #28672	; 0x7000
 80018aa:	f022 0270 	bic.w	r2, r2, #112	; 0x70
 80018ae:	0412      	lsls	r2, r2, #16
 80018b0:	0c12      	lsrs	r2, r2, #16
 80018b2:	f442 4200 	orr.w	r2, r2, #32768	; 0x8000
 80018b6:	f042 02c0 	orr.w	r2, r2, #192	; 0xc0
 80018ba:	f823 2024 	strh.w	r2, [r3, r4, lsl #2]
 80018be:	780c      	ldrb	r4, [r1, #0]
 80018c0:	4d15      	ldr	r5, [pc, #84]	; (8001918 <USB_ActivateEndpoint+0x2e8>)
 80018c2:	f833 2024 	ldrh.w	r2, [r3, r4, lsl #2]
 80018c6:	f422 42e0 	bic.w	r2, r2, #28672	; 0x7000
 80018ca:	f022 0270 	bic.w	r2, r2, #112	; 0x70
 80018ce:	0412      	lsls	r2, r2, #16
 80018d0:	0c12      	lsrs	r2, r2, #16
 80018d2:	f442 4240 	orr.w	r2, r2, #49152	; 0xc000
 80018d6:	f042 0280 	orr.w	r2, r2, #128	; 0x80
 80018da:	f823 2024 	strh.w	r2, [r3, r4, lsl #2]
 80018de:	78ca      	ldrb	r2, [r1, #3]
 80018e0:	780c      	ldrb	r4, [r1, #0]
 80018e2:	2a01      	cmp	r2, #1
 80018e4:	f833 2024 	ldrh.w	r2, [r3, r4, lsl #2]
 80018e8:	b292      	uxth	r2, r2
 80018ea:	ea02 0205 	and.w	r2, r2, r5
 80018ee:	bf18      	it	ne
 80018f0:	f082 0220 	eorne.w	r2, r2, #32
 80018f4:	f442 4200 	orr.w	r2, r2, #32768	; 0x8000
 80018f8:	f042 0280 	orr.w	r2, r2, #128	; 0x80
 80018fc:	f823 2024 	strh.w	r2, [r3, r4, lsl #2]
 8001900:	7809      	ldrb	r1, [r1, #0]
 8001902:	f833 2021 	ldrh.w	r2, [r3, r1, lsl #2]
 8001906:	f422 4280 	bic.w	r2, r2, #16384	; 0x4000
 800190a:	f022 0270 	bic.w	r2, r2, #112	; 0x70
 800190e:	0412      	lsls	r2, r2, #16
 8001910:	0c12      	lsrs	r2, r2, #16
 8001912:	e6df      	b.n	80016d4 <USB_ActivateEndpoint+0xa4>
 8001914:	ffff8f8f 	.word	0xffff8f8f
 8001918:	ffff8fbf 	.word	0xffff8fbf
 800191c:	ffff8000 	.word	0xffff8000

08001920 <USB_DeactivateEndpoint>:
 8001920:	b510      	push	{r4, lr}
 8001922:	7b0c      	ldrb	r4, [r1, #12]
 8001924:	784b      	ldrb	r3, [r1, #1]
 8001926:	780a      	ldrb	r2, [r1, #0]
 8001928:	2c00      	cmp	r4, #0
 800192a:	d13d      	bne.n	80019a8 <USB_DeactivateEndpoint+0x88>
 800192c:	b313      	cbz	r3, 8001974 <USB_DeactivateEndpoint+0x54>
 800192e:	f830 3022 	ldrh.w	r3, [r0, r2, lsl #2]
 8001932:	065c      	lsls	r4, r3, #25
 8001934:	d50d      	bpl.n	8001952 <USB_DeactivateEndpoint+0x32>
 8001936:	f830 3022 	ldrh.w	r3, [r0, r2, lsl #2]
 800193a:	f423 43e0 	bic.w	r3, r3, #28672	; 0x7000
 800193e:	f023 0370 	bic.w	r3, r3, #112	; 0x70
 8001942:	041b      	lsls	r3, r3, #16
 8001944:	0c1b      	lsrs	r3, r3, #16
 8001946:	f443 4300 	orr.w	r3, r3, #32768	; 0x8000
 800194a:	f043 03c0 	orr.w	r3, r3, #192	; 0xc0
 800194e:	f820 3022 	strh.w	r3, [r0, r2, lsl #2]
 8001952:	780a      	ldrb	r2, [r1, #0]
 8001954:	f830 3022 	ldrh.w	r3, [r0, r2, lsl #2]
 8001958:	f423 43e0 	bic.w	r3, r3, #28672	; 0x7000
 800195c:	f023 0340 	bic.w	r3, r3, #64	; 0x40
 8001960:	041b      	lsls	r3, r3, #16
 8001962:	0c1b      	lsrs	r3, r3, #16
 8001964:	f443 4300 	orr.w	r3, r3, #32768	; 0x8000
 8001968:	f043 0380 	orr.w	r3, r3, #128	; 0x80
 800196c:	f820 3022 	strh.w	r3, [r0, r2, lsl #2]
 8001970:	2000      	movs	r0, #0
 8001972:	bd10      	pop	{r4, pc}
 8001974:	f830 3022 	ldrh.w	r3, [r0, r2, lsl #2]
 8001978:	045b      	lsls	r3, r3, #17
 800197a:	d50d      	bpl.n	8001998 <USB_DeactivateEndpoint+0x78>
 800197c:	f830 3022 	ldrh.w	r3, [r0, r2, lsl #2]
 8001980:	f423 43e0 	bic.w	r3, r3, #28672	; 0x7000
 8001984:	f023 0370 	bic.w	r3, r3, #112	; 0x70
 8001988:	041b      	lsls	r3, r3, #16
 800198a:	0c1b      	lsrs	r3, r3, #16
 800198c:	f443 4340 	orr.w	r3, r3, #49152	; 0xc000
 8001990:	f043 0380 	orr.w	r3, r3, #128	; 0x80
 8001994:	f820 3022 	strh.w	r3, [r0, r2, lsl #2]
 8001998:	780a      	ldrb	r2, [r1, #0]
 800199a:	f830 3022 	ldrh.w	r3, [r0, r2, lsl #2]
 800199e:	f423 4380 	bic.w	r3, r3, #16384	; 0x4000
 80019a2:	f023 0370 	bic.w	r3, r3, #112	; 0x70
 80019a6:	e7db      	b.n	8001960 <USB_DeactivateEndpoint+0x40>
 80019a8:	2b00      	cmp	r3, #0
 80019aa:	d14e      	bne.n	8001a4a <USB_DeactivateEndpoint+0x12a>
 80019ac:	f830 3022 	ldrh.w	r3, [r0, r2, lsl #2]
 80019b0:	045c      	lsls	r4, r3, #17
 80019b2:	d50d      	bpl.n	80019d0 <USB_DeactivateEndpoint+0xb0>
 80019b4:	f830 3022 	ldrh.w	r3, [r0, r2, lsl #2]
 80019b8:	f423 43e0 	bic.w	r3, r3, #28672	; 0x7000
 80019bc:	f023 0370 	bic.w	r3, r3, #112	; 0x70
 80019c0:	041b      	lsls	r3, r3, #16
 80019c2:	0c1b      	lsrs	r3, r3, #16
 80019c4:	f443 4340 	orr.w	r3, r3, #49152	; 0xc000
 80019c8:	f043 0380 	orr.w	r3, r3, #128	; 0x80
 80019cc:	f820 3022 	strh.w	r3, [r0, r2, lsl #2]
 80019d0:	780a      	ldrb	r2, [r1, #0]
 80019d2:	f830 3022 	ldrh.w	r3, [r0, r2, lsl #2]
 80019d6:	065b      	lsls	r3, r3, #25
 80019d8:	d50d      	bpl.n	80019f6 <USB_DeactivateEndpoint+0xd6>
 80019da:	f830 3022 	ldrh.w	r3, [r0, r2, lsl #2]
 80019de:	f423 43e0 	bic.w	r3, r3, #28672	; 0x7000
 80019e2:	f023 0370 	bic.w	r3, r3, #112	; 0x70
 80019e6:	041b      	lsls	r3, r3, #16
 80019e8:	0c1b      	lsrs	r3, r3, #16
 80019ea:	f443 4300 	orr.w	r3, r3, #32768	; 0x8000
 80019ee:	f043 03c0 	orr.w	r3, r3, #192	; 0xc0
 80019f2:	f820 3022 	strh.w	r3, [r0, r2, lsl #2]
 80019f6:	780a      	ldrb	r2, [r1, #0]
 80019f8:	f830 3022 	ldrh.w	r3, [r0, r2, lsl #2]
 80019fc:	f423 43e0 	bic.w	r3, r3, #28672	; 0x7000
 8001a00:	f023 0370 	bic.w	r3, r3, #112	; 0x70
 8001a04:	041b      	lsls	r3, r3, #16
 8001a06:	0c1b      	lsrs	r3, r3, #16
 8001a08:	f443 4300 	orr.w	r3, r3, #32768	; 0x8000
 8001a0c:	f043 03c0 	orr.w	r3, r3, #192	; 0xc0
 8001a10:	f820 3022 	strh.w	r3, [r0, r2, lsl #2]
 8001a14:	f248 0280 	movw	r2, #32896	; 0x8080
 8001a18:	780c      	ldrb	r4, [r1, #0]
 8001a1a:	f830 3024 	ldrh.w	r3, [r0, r4, lsl #2]
 8001a1e:	f423 4380 	bic.w	r3, r3, #16384	; 0x4000
 8001a22:	f023 0370 	bic.w	r3, r3, #112	; 0x70
 8001a26:	041b      	lsls	r3, r3, #16
 8001a28:	0c1b      	lsrs	r3, r3, #16
 8001a2a:	4313      	orrs	r3, r2
 8001a2c:	f820 3024 	strh.w	r3, [r0, r4, lsl #2]
 8001a30:	7809      	ldrb	r1, [r1, #0]
 8001a32:	f830 3021 	ldrh.w	r3, [r0, r1, lsl #2]
 8001a36:	f423 43e0 	bic.w	r3, r3, #28672	; 0x7000
 8001a3a:	f023 0340 	bic.w	r3, r3, #64	; 0x40
 8001a3e:	041b      	lsls	r3, r3, #16
 8001a40:	0c1b      	lsrs	r3, r3, #16
 8001a42:	4313      	orrs	r3, r2
 8001a44:	f820 3021 	strh.w	r3, [r0, r1, lsl #2]
 8001a48:	e792      	b.n	8001970 <USB_DeactivateEndpoint+0x50>
 8001a4a:	f830 3022 	ldrh.w	r3, [r0, r2, lsl #2]
 8001a4e:	045c      	lsls	r4, r3, #17
 8001a50:	d50d      	bpl.n	8001a6e <USB_DeactivateEndpoint+0x14e>
 8001a52:	f830 3022 	ldrh.w	r3, [r0, r2, lsl #2]
 8001a56:	f423 43e0 	bic.w	r3, r3, #28672	; 0x7000
 8001a5a:	f023 0370 	bic.w	r3, r3, #112	; 0x70
 8001a5e:	041b      	lsls	r3, r3, #16
 8001a60:	0c1b      	lsrs	r3, r3, #16
 8001a62:	f443 4340 	orr.w	r3, r3, #49152	; 0xc000
 8001a66:	f043 0380 	orr.w	r3, r3, #128	; 0x80
 8001a6a:	f820 3022 	strh.w	r3, [r0, r2, lsl #2]
 8001a6e:	780a      	ldrb	r2, [r1, #0]
 8001a70:	f830 3022 	ldrh.w	r3, [r0, r2, lsl #2]
 8001a74:	065b      	lsls	r3, r3, #25
 8001a76:	d50d      	bpl.n	8001a94 <USB_DeactivateEndpoint+0x174>
 8001a78:	f830 3022 	ldrh.w	r3, [r0, r2, lsl #2]
 8001a7c:	f423 43e0 	bic.w	r3, r3, #28672	; 0x7000
 8001a80:	f023 0370 	bic.w	r3, r3, #112	; 0x70
 8001a84:	041b      	lsls	r3, r3, #16
 8001a86:	0c1b      	lsrs	r3, r3, #16
 8001a88:	f443 4300 	orr.w	r3, r3, #32768	; 0x8000
 8001a8c:	f043 03c0 	orr.w	r3, r3, #192	; 0xc0
 8001a90:	f820 3022 	strh.w	r3, [r0, r2, lsl #2]
 8001a94:	780a      	ldrb	r2, [r1, #0]
 8001a96:	f830 3022 	ldrh.w	r3, [r0, r2, lsl #2]
 8001a9a:	f423 43e0 	bic.w	r3, r3, #28672	; 0x7000
 8001a9e:	f023 0370 	bic.w	r3, r3, #112	; 0x70
 8001aa2:	041b      	lsls	r3, r3, #16
 8001aa4:	0c1b      	lsrs	r3, r3, #16
 8001aa6:	f443 4340 	orr.w	r3, r3, #49152	; 0xc000
 8001aaa:	f043 0380 	orr.w	r3, r3, #128	; 0x80
 8001aae:	f820 3022 	strh.w	r3, [r0, r2, lsl #2]
 8001ab2:	f248 0280 	movw	r2, #32896	; 0x8080
 8001ab6:	780c      	ldrb	r4, [r1, #0]
 8001ab8:	f830 3024 	ldrh.w	r3, [r0, r4, lsl #2]
 8001abc:	f423 43e0 	bic.w	r3, r3, #28672	; 0x7000
 8001ac0:	f023 0340 	bic.w	r3, r3, #64	; 0x40
 8001ac4:	041b      	lsls	r3, r3, #16
 8001ac6:	0c1b      	lsrs	r3, r3, #16
 8001ac8:	4313      	orrs	r3, r2
 8001aca:	f820 3024 	strh.w	r3, [r0, r4, lsl #2]
 8001ace:	7809      	ldrb	r1, [r1, #0]
 8001ad0:	f830 3021 	ldrh.w	r3, [r0, r1, lsl #2]
 8001ad4:	f423 4380 	bic.w	r3, r3, #16384	; 0x4000
 8001ad8:	f023 0370 	bic.w	r3, r3, #112	; 0x70
 8001adc:	e7af      	b.n	8001a3e <USB_DeactivateEndpoint+0x11e>

08001ade <USB_EPSetStall>:
 8001ade:	784b      	ldrb	r3, [r1, #1]
 8001ae0:	780a      	ldrb	r2, [r1, #0]
 8001ae2:	b18b      	cbz	r3, 8001b08 <USB_EPSetStall+0x2a>
 8001ae4:	f830 3022 	ldrh.w	r3, [r0, r2, lsl #2]
 8001ae8:	f423 43e0 	bic.w	r3, r3, #28672	; 0x7000
 8001aec:	f023 0340 	bic.w	r3, r3, #64	; 0x40
 8001af0:	041b      	lsls	r3, r3, #16
 8001af2:	0c1b      	lsrs	r3, r3, #16
 8001af4:	f083 0310 	eor.w	r3, r3, #16
 8001af8:	f443 4300 	orr.w	r3, r3, #32768	; 0x8000
 8001afc:	f043 0380 	orr.w	r3, r3, #128	; 0x80
 8001b00:	f820 3022 	strh.w	r3, [r0, r2, lsl #2]
 8001b04:	2000      	movs	r0, #0
 8001b06:	4770      	bx	lr
 8001b08:	f830 3022 	ldrh.w	r3, [r0, r2, lsl #2]
 8001b0c:	f423 4380 	bic.w	r3, r3, #16384	; 0x4000
 8001b10:	f023 0370 	bic.w	r3, r3, #112	; 0x70
 8001b14:	041b      	lsls	r3, r3, #16
 8001b16:	0c1b      	lsrs	r3, r3, #16
 8001b18:	f483 5380 	eor.w	r3, r3, #4096	; 0x1000
 8001b1c:	e7ec      	b.n	8001af8 <USB_EPSetStall+0x1a>

08001b1e <USB_EPClearStall>:
 8001b1e:	7b0b      	ldrb	r3, [r1, #12]
 8001b20:	bb43      	cbnz	r3, 8001b74 <USB_EPClearStall+0x56>
 8001b22:	784b      	ldrb	r3, [r1, #1]
 8001b24:	780a      	ldrb	r2, [r1, #0]
 8001b26:	b33b      	cbz	r3, 8001b78 <USB_EPClearStall+0x5a>
 8001b28:	f830 3022 	ldrh.w	r3, [r0, r2, lsl #2]
 8001b2c:	065b      	lsls	r3, r3, #25
 8001b2e:	d50d      	bpl.n	8001b4c <USB_EPClearStall+0x2e>
 8001b30:	f830 3022 	ldrh.w	r3, [r0, r2, lsl #2]
 8001b34:	f423 43e0 	bic.w	r3, r3, #28672	; 0x7000
 8001b38:	f023 0370 	bic.w	r3, r3, #112	; 0x70
 8001b3c:	041b      	lsls	r3, r3, #16
 8001b3e:	0c1b      	lsrs	r3, r3, #16
 8001b40:	f443 4300 	orr.w	r3, r3, #32768	; 0x8000
 8001b44:	f043 03c0 	orr.w	r3, r3, #192	; 0xc0
 8001b48:	f820 3022 	strh.w	r3, [r0, r2, lsl #2]
 8001b4c:	78cb      	ldrb	r3, [r1, #3]
 8001b4e:	2b01      	cmp	r3, #1
 8001b50:	d010      	beq.n	8001b74 <USB_EPClearStall+0x56>
 8001b52:	780a      	ldrb	r2, [r1, #0]
 8001b54:	f830 3022 	ldrh.w	r3, [r0, r2, lsl #2]
 8001b58:	f423 43e0 	bic.w	r3, r3, #28672	; 0x7000
 8001b5c:	f023 0340 	bic.w	r3, r3, #64	; 0x40
 8001b60:	041b      	lsls	r3, r3, #16
 8001b62:	0c1b      	lsrs	r3, r3, #16
 8001b64:	f083 0320 	eor.w	r3, r3, #32
 8001b68:	f443 4300 	orr.w	r3, r3, #32768	; 0x8000
 8001b6c:	f043 0380 	orr.w	r3, r3, #128	; 0x80
 8001b70:	f820 3022 	strh.w	r3, [r0, r2, lsl #2]
 8001b74:	2000      	movs	r0, #0
 8001b76:	4770      	bx	lr
 8001b78:	f830 3022 	ldrh.w	r3, [r0, r2, lsl #2]
 8001b7c:	045b      	lsls	r3, r3, #17
 8001b7e:	d50d      	bpl.n	8001b9c <USB_EPClearStall+0x7e>
 8001b80:	f830 3022 	ldrh.w	r3, [r0, r2, lsl #2]
 8001b84:	f423 43e0 	bic.w	r3, r3, #28672	; 0x7000
 8001b88:	f023 0370 	bic.w	r3, r3, #112	; 0x70
 8001b8c:	041b      	lsls	r3, r3, #16
 8001b8e:	0c1b      	lsrs	r3, r3, #16
 8001b90:	f443 4340 	orr.w	r3, r3, #49152	; 0xc000
 8001b94:	f043 0380 	orr.w	r3, r3, #128	; 0x80
 8001b98:	f820 3022 	strh.w	r3, [r0, r2, lsl #2]
 8001b9c:	780a      	ldrb	r2, [r1, #0]
 8001b9e:	f830 3022 	ldrh.w	r3, [r0, r2, lsl #2]
 8001ba2:	f423 4380 	bic.w	r3, r3, #16384	; 0x4000
 8001ba6:	f023 0370 	bic.w	r3, r3, #112	; 0x70
 8001baa:	041b      	lsls	r3, r3, #16
 8001bac:	0c1b      	lsrs	r3, r3, #16
 8001bae:	f483 5340 	eor.w	r3, r3, #12288	; 0x3000
 8001bb2:	e7d9      	b.n	8001b68 <USB_EPClearStall+0x4a>

08001bb4 <USB_SetDevAddress>:
 8001bb4:	b911      	cbnz	r1, 8001bbc <USB_SetDevAddress+0x8>
 8001bb6:	2380      	movs	r3, #128	; 0x80
 8001bb8:	f8a0 304c 	strh.w	r3, [r0, #76]	; 0x4c
 8001bbc:	2000      	movs	r0, #0
 8001bbe:	4770      	bx	lr

08001bc0 <USB_DevConnect>:
 8001bc0:	2000      	movs	r0, #0
 8001bc2:	4770      	bx	lr

08001bc4 <USB_DevDisconnect>:
 8001bc4:	2000      	movs	r0, #0
 8001bc6:	4770      	bx	lr

08001bc8 <USB_ReadInterrupts>:
 8001bc8:	f8b0 0044 	ldrh.w	r0, [r0, #68]	; 0x44
 8001bcc:	b280      	uxth	r0, r0
 8001bce:	4770      	bx	lr

08001bd0 <USB_EP0_OutStart>:
 8001bd0:	2000      	movs	r0, #0
 8001bd2:	4770      	bx	lr

08001bd4 <USB_WritePMA>:
 8001bd4:	eb00 0242 	add.w	r2, r0, r2, lsl #1
 8001bd8:	3301      	adds	r3, #1
 8001bda:	f502 6280 	add.w	r2, r2, #1024	; 0x400
 8001bde:	085b      	lsrs	r3, r3, #1
 8001be0:	eb02 0383 	add.w	r3, r2, r3, lsl #2
 8001be4:	429a      	cmp	r2, r3
 8001be6:	d100      	bne.n	8001bea <USB_WritePMA+0x16>
 8001be8:	4770      	bx	lr
 8001bea:	f831 0b02 	ldrh.w	r0, [r1], #2
 8001bee:	f822 0b04 	strh.w	r0, [r2], #4
 8001bf2:	e7f7      	b.n	8001be4 <USB_WritePMA+0x10>

08001bf4 <USB_EPStartXfer>:
 8001bf4:	b570      	push	{r4, r5, r6, lr}
 8001bf6:	460d      	mov	r5, r1
 8001bf8:	7849      	ldrb	r1, [r1, #1]
 8001bfa:	4604      	mov	r4, r0
 8001bfc:	2901      	cmp	r1, #1
 8001bfe:	69aa      	ldr	r2, [r5, #24]
 8001c00:	692b      	ldr	r3, [r5, #16]
 8001c02:	7b28      	ldrb	r0, [r5, #12]
 8001c04:	d166      	bne.n	8001cd4 <USB_EPStartXfer+0xe0>
 8001c06:	429a      	cmp	r2, r3
 8001c08:	bf9d      	ittte	ls
 8001c0a:	2300      	movls	r3, #0
 8001c0c:	61ab      	strls	r3, [r5, #24]
 8001c0e:	4613      	movls	r3, r2
 8001c10:	1ad2      	subhi	r2, r2, r3
 8001c12:	bf88      	it	hi
 8001c14:	61aa      	strhi	r2, [r5, #24]
 8001c16:	b29e      	uxth	r6, r3
 8001c18:	bb08      	cbnz	r0, 8001c5e <USB_EPStartXfer+0x6a>
 8001c1a:	4633      	mov	r3, r6
 8001c1c:	88ea      	ldrh	r2, [r5, #6]
 8001c1e:	6969      	ldr	r1, [r5, #20]
 8001c20:	4620      	mov	r0, r4
 8001c22:	f7ff ffd7 	bl	8001bd4 <USB_WritePMA>
 8001c26:	f8b4 3050 	ldrh.w	r3, [r4, #80]	; 0x50
 8001c2a:	782a      	ldrb	r2, [r5, #0]
 8001c2c:	b299      	uxth	r1, r3
 8001c2e:	f204 4304 	addw	r3, r4, #1028	; 0x404
 8001c32:	0112      	lsls	r2, r2, #4
 8001c34:	440b      	add	r3, r1
 8001c36:	52d6      	strh	r6, [r2, r3]
 8001c38:	782a      	ldrb	r2, [r5, #0]
 8001c3a:	f834 3022 	ldrh.w	r3, [r4, r2, lsl #2]
 8001c3e:	f423 43e0 	bic.w	r3, r3, #28672	; 0x7000
 8001c42:	f023 0340 	bic.w	r3, r3, #64	; 0x40
 8001c46:	041b      	lsls	r3, r3, #16
 8001c48:	0c1b      	lsrs	r3, r3, #16
 8001c4a:	f083 0330 	eor.w	r3, r3, #48	; 0x30
 8001c4e:	f443 4300 	orr.w	r3, r3, #32768	; 0x8000
 8001c52:	f043 0380 	orr.w	r3, r3, #128	; 0x80
 8001c56:	f824 3022 	strh.w	r3, [r4, r2, lsl #2]
 8001c5a:	2000      	movs	r0, #0
 8001c5c:	bd70      	pop	{r4, r5, r6, pc}
 8001c5e:	782b      	ldrb	r3, [r5, #0]
 8001c60:	4620      	mov	r0, r4
 8001c62:	f834 2023 	ldrh.w	r2, [r4, r3, lsl #2]
 8001c66:	011b      	lsls	r3, r3, #4
 8001c68:	f012 0f40 	tst.w	r2, #64	; 0x40
 8001c6c:	f8b4 2050 	ldrh.w	r2, [r4, #80]	; 0x50
 8001c70:	b291      	uxth	r1, r2
 8001c72:	bf15      	itete	ne
 8001c74:	f204 420c 	addwne	r2, r4, #1036	; 0x40c
 8001c78:	f204 4204 	addweq	r2, r4, #1028	; 0x404
 8001c7c:	1852      	addne	r2, r2, r1
 8001c7e:	1852      	addeq	r2, r2, r1
 8001c80:	bf15      	itete	ne
 8001c82:	52d6      	strhne	r6, [r2, r3]
 8001c84:	52d6      	strheq	r6, [r2, r3]
 8001c86:	896a      	ldrhne	r2, [r5, #10]
 8001c88:	892a      	ldrheq	r2, [r5, #8]
 8001c8a:	4633      	mov	r3, r6
 8001c8c:	6969      	ldr	r1, [r5, #20]
 8001c8e:	f7ff ffa1 	bl	8001bd4 <USB_WritePMA>
 8001c92:	786b      	ldrb	r3, [r5, #1]
 8001c94:	782a      	ldrb	r2, [r5, #0]
 8001c96:	b973      	cbnz	r3, 8001cb6 <USB_EPStartXfer+0xc2>
 8001c98:	f834 3022 	ldrh.w	r3, [r4, r2, lsl #2]
 8001c9c:	f423 43e0 	bic.w	r3, r3, #28672	; 0x7000
 8001ca0:	f023 0370 	bic.w	r3, r3, #112	; 0x70
 8001ca4:	041b      	lsls	r3, r3, #16
 8001ca6:	0c1b      	lsrs	r3, r3, #16
 8001ca8:	f443 4300 	orr.w	r3, r3, #32768	; 0x8000
 8001cac:	f043 03c0 	orr.w	r3, r3, #192	; 0xc0
 8001cb0:	f824 3022 	strh.w	r3, [r4, r2, lsl #2]
 8001cb4:	e7c0      	b.n	8001c38 <USB_EPStartXfer+0x44>
 8001cb6:	2b01      	cmp	r3, #1
 8001cb8:	d1be      	bne.n	8001c38 <USB_EPStartXfer+0x44>
 8001cba:	f834 3022 	ldrh.w	r3, [r4, r2, lsl #2]
 8001cbe:	f423 43e0 	bic.w	r3, r3, #28672	; 0x7000
 8001cc2:	f023 0370 	bic.w	r3, r3, #112	; 0x70
 8001cc6:	041b      	lsls	r3, r3, #16
 8001cc8:	0c1b      	lsrs	r3, r3, #16
 8001cca:	f443 4340 	orr.w	r3, r3, #49152	; 0xc000
 8001cce:	f043 0380 	orr.w	r3, r3, #128	; 0x80
 8001cd2:	e7ed      	b.n	8001cb0 <USB_EPStartXfer+0xbc>
 8001cd4:	429a      	cmp	r2, r3
 8001cd6:	bf93      	iteet	ls
 8001cd8:	2300      	movls	r3, #0
 8001cda:	1ad2      	subhi	r2, r2, r3
 8001cdc:	61aa      	strhi	r2, [r5, #24]
 8001cde:	61ab      	strls	r3, [r5, #24]
 8001ce0:	bf98      	it	ls
 8001ce2:	4613      	movls	r3, r2
 8001ce4:	782a      	ldrb	r2, [r5, #0]
 8001ce6:	b9b0      	cbnz	r0, 8001d16 <USB_EPStartXfer+0x122>
 8001ce8:	f8b4 0050 	ldrh.w	r0, [r4, #80]	; 0x50
 8001cec:	0112      	lsls	r2, r2, #4
 8001cee:	b281      	uxth	r1, r0
 8001cf0:	f204 400c 	addw	r0, r4, #1036	; 0x40c
 8001cf4:	4408      	add	r0, r1
 8001cf6:	2b00      	cmp	r3, #0
 8001cf8:	d144      	bne.n	8001d84 <USB_EPStartXfer+0x190>
 8001cfa:	5a83      	ldrh	r3, [r0, r2]
 8001cfc:	f423 43f8 	bic.w	r3, r3, #31744	; 0x7c00
 8001d00:	041b      	lsls	r3, r3, #16
 8001d02:	0c1b      	lsrs	r3, r3, #16
 8001d04:	5283      	strh	r3, [r0, r2]
 8001d06:	5a83      	ldrh	r3, [r0, r2]
 8001d08:	ea6f 4343 	mvn.w	r3, r3, lsl #17
 8001d0c:	ea6f 4353 	mvn.w	r3, r3, lsr #17
 8001d10:	b29b      	uxth	r3, r3
 8001d12:	5283      	strh	r3, [r0, r2]
 8001d14:	e03f      	b.n	8001d96 <USB_EPStartXfer+0x1a2>
 8001d16:	b9a1      	cbnz	r1, 8001d42 <USB_EPStartXfer+0x14e>
 8001d18:	f8b4 0050 	ldrh.w	r0, [r4, #80]	; 0x50
 8001d1c:	0112      	lsls	r2, r2, #4
 8001d1e:	b281      	uxth	r1, r0
 8001d20:	f204 4004 	addw	r0, r4, #1028	; 0x404
 8001d24:	4408      	add	r0, r1
 8001d26:	b9e3      	cbnz	r3, 8001d62 <USB_EPStartXfer+0x16e>
 8001d28:	5a81      	ldrh	r1, [r0, r2]
 8001d2a:	f421 41f8 	bic.w	r1, r1, #31744	; 0x7c00
 8001d2e:	0409      	lsls	r1, r1, #16
 8001d30:	0c09      	lsrs	r1, r1, #16
 8001d32:	5281      	strh	r1, [r0, r2]
 8001d34:	5a81      	ldrh	r1, [r0, r2]
 8001d36:	ea6f 4141 	mvn.w	r1, r1, lsl #17
 8001d3a:	ea6f 4151 	mvn.w	r1, r1, lsr #17
 8001d3e:	b289      	uxth	r1, r1
 8001d40:	5281      	strh	r1, [r0, r2]
 8001d42:	7869      	ldrb	r1, [r5, #1]
 8001d44:	782a      	ldrb	r2, [r5, #0]
 8001d46:	2900      	cmp	r1, #0
 8001d48:	d0ce      	beq.n	8001ce8 <USB_EPStartXfer+0xf4>
 8001d4a:	2901      	cmp	r1, #1
 8001d4c:	d123      	bne.n	8001d96 <USB_EPStartXfer+0x1a2>
 8001d4e:	f8b4 1050 	ldrh.w	r1, [r4, #80]	; 0x50
 8001d52:	0112      	lsls	r2, r2, #4
 8001d54:	b288      	uxth	r0, r1
 8001d56:	f204 410c 	addw	r1, r4, #1036	; 0x40c
 8001d5a:	4401      	add	r1, r0
 8001d5c:	b29b      	uxth	r3, r3
 8001d5e:	528b      	strh	r3, [r1, r2]
 8001d60:	e019      	b.n	8001d96 <USB_EPStartXfer+0x1a2>
 8001d62:	2b3e      	cmp	r3, #62	; 0x3e
 8001d64:	d805      	bhi.n	8001d72 <USB_EPStartXfer+0x17e>
 8001d66:	0859      	lsrs	r1, r3, #1
 8001d68:	07de      	lsls	r6, r3, #31
 8001d6a:	bf48      	it	mi
 8001d6c:	3101      	addmi	r1, #1
 8001d6e:	0289      	lsls	r1, r1, #10
 8001d70:	e7e5      	b.n	8001d3e <USB_EPStartXfer+0x14a>
 8001d72:	095e      	lsrs	r6, r3, #5
 8001d74:	06d9      	lsls	r1, r3, #27
 8001d76:	4912      	ldr	r1, [pc, #72]	; (8001dc0 <USB_EPStartXfer+0x1cc>)
 8001d78:	bf08      	it	eq
 8001d7a:	f106 36ff 	addeq.w	r6, r6, #4294967295
 8001d7e:	ea41 2186 	orr.w	r1, r1, r6, lsl #10
 8001d82:	e7dc      	b.n	8001d3e <USB_EPStartXfer+0x14a>
 8001d84:	2b3e      	cmp	r3, #62	; 0x3e
 8001d86:	d812      	bhi.n	8001dae <USB_EPStartXfer+0x1ba>
 8001d88:	0859      	lsrs	r1, r3, #1
 8001d8a:	07de      	lsls	r6, r3, #31
 8001d8c:	bf48      	it	mi
 8001d8e:	3101      	addmi	r1, #1
 8001d90:	0289      	lsls	r1, r1, #10
 8001d92:	b289      	uxth	r1, r1
 8001d94:	5281      	strh	r1, [r0, r2]
 8001d96:	782a      	ldrb	r2, [r5, #0]
 8001d98:	f834 3022 	ldrh.w	r3, [r4, r2, lsl #2]
 8001d9c:	f423 4380 	bic.w	r3, r3, #16384	; 0x4000
 8001da0:	f023 0370 	bic.w	r3, r3, #112	; 0x70
 8001da4:	041b      	lsls	r3, r3, #16
 8001da6:	0c1b      	lsrs	r3, r3, #16
 8001da8:	f483 5340 	eor.w	r3, r3, #12288	; 0x3000
 8001dac:	e74f      	b.n	8001c4e <USB_EPStartXfer+0x5a>
 8001dae:	0959      	lsrs	r1, r3, #5
 8001db0:	06db      	lsls	r3, r3, #27
 8001db2:	4b03      	ldr	r3, [pc, #12]	; (8001dc0 <USB_EPStartXfer+0x1cc>)
 8001db4:	bf08      	it	eq
 8001db6:	f101 31ff 	addeq.w	r1, r1, #4294967295
 8001dba:	ea43 2381 	orr.w	r3, r3, r1, lsl #10
 8001dbe:	e7a7      	b.n	8001d10 <USB_EPStartXfer+0x11c>
 8001dc0:	ffff8000 	.word	0xffff8000

08001dc4 <USB_ReadPMA>:
 8001dc4:	eb00 0242 	add.w	r2, r0, r2, lsl #1
 8001dc8:	b5f0      	push	{r4, r5, r6, r7, lr}
 8001dca:	f502 6280 	add.w	r2, r2, #1024	; 0x400
 8001dce:	085d      	lsrs	r5, r3, #1
 8001dd0:	4608      	mov	r0, r1
 8001dd2:	4617      	mov	r7, r2
 8001dd4:	462e      	mov	r6, r5
 8001dd6:	3002      	adds	r0, #2
 8001dd8:	b936      	cbnz	r6, 8001de8 <USB_ReadPMA+0x24>
 8001dda:	07db      	lsls	r3, r3, #31
 8001ddc:	bf44      	itt	mi
 8001dde:	f832 3025 	ldrhmi.w	r3, [r2, r5, lsl #2]
 8001de2:	f801 3015 	strbmi.w	r3, [r1, r5, lsl #1]
 8001de6:	bdf0      	pop	{r4, r5, r6, r7, pc}
 8001de8:	f837 4b04 	ldrh.w	r4, [r7], #4
 8001dec:	3e01      	subs	r6, #1
 8001dee:	b2a4      	uxth	r4, r4
 8001df0:	f800 4c02 	strb.w	r4, [r0, #-2]
 8001df4:	0a24      	lsrs	r4, r4, #8
 8001df6:	f800 4c01 	strb.w	r4, [r0, #-1]
 8001dfa:	e7ec      	b.n	8001dd6 <USB_ReadPMA+0x12>

08001dfc <USBD_CDC_EP0_RxReady>:
 8001dfc:	f8d0 32bc 	ldr.w	r3, [r0, #700]	; 0x2bc
 8001e00:	b510      	push	{r4, lr}
 8001e02:	f8d0 42b8 	ldr.w	r4, [r0, #696]	; 0x2b8
 8001e06:	b15b      	cbz	r3, 8001e20 <USBD_CDC_EP0_RxReady+0x24>
 8001e08:	f894 0200 	ldrb.w	r0, [r4, #512]	; 0x200
 8001e0c:	28ff      	cmp	r0, #255	; 0xff
 8001e0e:	d007      	beq.n	8001e20 <USBD_CDC_EP0_RxReady+0x24>
 8001e10:	689b      	ldr	r3, [r3, #8]
 8001e12:	f894 2201 	ldrb.w	r2, [r4, #513]	; 0x201
 8001e16:	4621      	mov	r1, r4
 8001e18:	4798      	blx	r3
 8001e1a:	23ff      	movs	r3, #255	; 0xff
 8001e1c:	f884 3200 	strb.w	r3, [r4, #512]	; 0x200
 8001e20:	2000      	movs	r0, #0
 8001e22:	bd10      	pop	{r4, pc}

08001e24 <USBD_CDC_GetFSCfgDesc>:
 8001e24:	2343      	movs	r3, #67	; 0x43
 8001e26:	8003      	strh	r3, [r0, #0]
 8001e28:	4800      	ldr	r0, [pc, #0]	; (8001e2c <USBD_CDC_GetFSCfgDesc+0x8>)
 8001e2a:	4770      	bx	lr
 8001e2c:	20000040 	.word	0x20000040

08001e30 <USBD_CDC_GetHSCfgDesc>:
 8001e30:	2343      	movs	r3, #67	; 0x43
 8001e32:	8003      	strh	r3, [r0, #0]
 8001e34:	4800      	ldr	r0, [pc, #0]	; (8001e38 <USBD_CDC_GetHSCfgDesc+0x8>)
 8001e36:	4770      	bx	lr
 8001e38:	20000084 	.word	0x20000084

08001e3c <USBD_CDC_GetOtherSpeedCfgDesc>:
 8001e3c:	2343      	movs	r3, #67	; 0x43
 8001e3e:	8003      	strh	r3, [r0, #0]
 8001e40:	4800      	ldr	r0, [pc, #0]	; (8001e44 <USBD_CDC_GetOtherSpeedCfgDesc+0x8>)
 8001e42:	4770      	bx	lr
 8001e44:	200000d4 	.word	0x200000d4

08001e48 <USBD_CDC_GetDeviceQualifierDescriptor>:
 8001e48:	230a      	movs	r3, #10
 8001e4a:	8003      	strh	r3, [r0, #0]
 8001e4c:	4800      	ldr	r0, [pc, #0]	; (8001e50 <USBD_CDC_GetDeviceQualifierDescriptor+0x8>)
 8001e4e:	4770      	bx	lr
 8001e50:	200000c8 	.word	0x200000c8

08001e54 <USBD_CDC_DataOut>:
 8001e54:	b538      	push	{r3, r4, r5, lr}
 8001e56:	4605      	mov	r5, r0
 8001e58:	f8d0 42b8 	ldr.w	r4, [r0, #696]	; 0x2b8
 8001e5c:	f001 f8da 	bl	8003014 <USBD_LL_GetRxDataSize>
 8001e60:	f8d5 32b8 	ldr.w	r3, [r5, #696]	; 0x2b8
 8001e64:	f8c4 020c 	str.w	r0, [r4, #524]	; 0x20c
 8001e68:	b14b      	cbz	r3, 8001e7e <USBD_CDC_DataOut+0x2a>
 8001e6a:	f8d5 32bc 	ldr.w	r3, [r5, #700]	; 0x2bc
 8001e6e:	f504 7103 	add.w	r1, r4, #524	; 0x20c
 8001e72:	68db      	ldr	r3, [r3, #12]
 8001e74:	f8d4 0204 	ldr.w	r0, [r4, #516]	; 0x204
 8001e78:	4798      	blx	r3
 8001e7a:	2000      	movs	r0, #0
 8001e7c:	bd38      	pop	{r3, r4, r5, pc}
 8001e7e:	2002      	movs	r0, #2
 8001e80:	bd38      	pop	{r3, r4, r5, pc}

08001e82 <USBD_CDC_DataIn>:
 8001e82:	b5f8      	push	{r3, r4, r5, r6, r7, lr}
 8001e84:	f8d0 62b8 	ldr.w	r6, [r0, #696]	; 0x2b8
 8001e88:	b1ce      	cbz	r6, 8001ebe <USBD_CDC_DataIn+0x3c>
 8001e8a:	2314      	movs	r3, #20
 8001e8c:	fb03 0301 	mla	r3, r3, r1, r0
 8001e90:	69da      	ldr	r2, [r3, #28]
 8001e92:	b182      	cbz	r2, 8001eb6 <USBD_CDC_DataIn+0x34>
 8001e94:	f8d0 42c0 	ldr.w	r4, [r0, #704]	; 0x2c0
 8001e98:	eb04 1441 	add.w	r4, r4, r1, lsl #5
 8001e9c:	6ba5      	ldr	r5, [r4, #56]	; 0x38
 8001e9e:	fbb2 f4f5 	udiv	r4, r2, r5
 8001ea2:	fb05 2414 	mls	r4, r5, r4, r2
 8001ea6:	b934      	cbnz	r4, 8001eb6 <USBD_CDC_DataIn+0x34>
 8001ea8:	61dc      	str	r4, [r3, #28]
 8001eaa:	4622      	mov	r2, r4
 8001eac:	4623      	mov	r3, r4
 8001eae:	f001 f895 	bl	8002fdc <USBD_LL_Transmit>
 8001eb2:	4620      	mov	r0, r4
 8001eb4:	bdf8      	pop	{r3, r4, r5, r6, r7, pc}
 8001eb6:	2000      	movs	r0, #0
 8001eb8:	f8c6 0214 	str.w	r0, [r6, #532]	; 0x214
 8001ebc:	bdf8      	pop	{r3, r4, r5, r6, r7, pc}
 8001ebe:	2002      	movs	r0, #2
 8001ec0:	bdf8      	pop	{r3, r4, r5, r6, r7, pc}

08001ec2 <USBD_CDC_Setup>:
 8001ec2:	e92d 43f7 	stmdb	sp!, {r0, r1, r2, r4, r5, r6, r7, r8, r9, lr}
 8001ec6:	f04f 0800 	mov.w	r8, #0
 8001eca:	780a      	ldrb	r2, [r1, #0]
 8001ecc:	4605      	mov	r5, r0
 8001ece:	f012 0460 	ands.w	r4, r2, #96	; 0x60
 8001ed2:	460e      	mov	r6, r1
 8001ed4:	f8d0 72b8 	ldr.w	r7, [r0, #696]	; 0x2b8
 8001ed8:	f88d 8005 	strb.w	r8, [sp, #5]
 8001edc:	f8ad 8006 	strh.w	r8, [sp, #6]
 8001ee0:	d028      	beq.n	8001f34 <USBD_CDC_Setup+0x72>
 8001ee2:	2c20      	cmp	r4, #32
 8001ee4:	d147      	bne.n	8001f76 <USBD_CDC_Setup+0xb4>
 8001ee6:	88cc      	ldrh	r4, [r1, #6]
 8001ee8:	784b      	ldrb	r3, [r1, #1]
 8001eea:	b1e4      	cbz	r4, 8001f26 <USBD_CDC_Setup+0x64>
 8001eec:	0612      	lsls	r2, r2, #24
 8001eee:	d511      	bpl.n	8001f14 <USBD_CDC_Setup+0x52>
 8001ef0:	f8d0 22bc 	ldr.w	r2, [r0, #700]	; 0x2bc
 8001ef4:	4639      	mov	r1, r7
 8001ef6:	f8d2 9008 	ldr.w	r9, [r2, #8]
 8001efa:	4618      	mov	r0, r3
 8001efc:	4622      	mov	r2, r4
 8001efe:	47c8      	blx	r9
 8001f00:	88f2      	ldrh	r2, [r6, #6]
 8001f02:	4639      	mov	r1, r7
 8001f04:	4628      	mov	r0, r5
 8001f06:	f000 fc4c 	bl	80027a2 <USBD_CtlSendData>
 8001f0a:	4644      	mov	r4, r8
 8001f0c:	4620      	mov	r0, r4
 8001f0e:	b003      	add	sp, #12
 8001f10:	e8bd 83f0 	ldmia.w	sp!, {r4, r5, r6, r7, r8, r9, pc}
 8001f14:	f887 3200 	strb.w	r3, [r7, #512]	; 0x200
 8001f18:	f887 4201 	strb.w	r4, [r7, #513]	; 0x201
 8001f1c:	4622      	mov	r2, r4
 8001f1e:	4639      	mov	r1, r7
 8001f20:	f000 fc54 	bl	80027cc <USBD_CtlPrepareRx>
 8001f24:	e7f1      	b.n	8001f0a <USBD_CDC_Setup+0x48>
 8001f26:	f8d0 22bc 	ldr.w	r2, [r0, #700]	; 0x2bc
 8001f2a:	4618      	mov	r0, r3
 8001f2c:	6895      	ldr	r5, [r2, #8]
 8001f2e:	4622      	mov	r2, r4
 8001f30:	47a8      	blx	r5
 8001f32:	e7eb      	b.n	8001f0c <USBD_CDC_Setup+0x4a>
 8001f34:	784f      	ldrb	r7, [r1, #1]
 8001f36:	2f0a      	cmp	r7, #10
 8001f38:	d00d      	beq.n	8001f56 <USBD_CDC_Setup+0x94>
 8001f3a:	2f0b      	cmp	r7, #11
 8001f3c:	d015      	beq.n	8001f6a <USBD_CDC_Setup+0xa8>
 8001f3e:	b9d7      	cbnz	r7, 8001f76 <USBD_CDC_Setup+0xb4>
 8001f40:	f890 329c 	ldrb.w	r3, [r0, #668]	; 0x29c
 8001f44:	2b03      	cmp	r3, #3
 8001f46:	d114      	bne.n	8001f72 <USBD_CDC_Setup+0xb0>
 8001f48:	2202      	movs	r2, #2
 8001f4a:	f10d 0106 	add.w	r1, sp, #6
 8001f4e:	f000 fc28 	bl	80027a2 <USBD_CtlSendData>
 8001f52:	463c      	mov	r4, r7
 8001f54:	e7da      	b.n	8001f0c <USBD_CDC_Setup+0x4a>
 8001f56:	f890 329c 	ldrb.w	r3, [r0, #668]	; 0x29c
 8001f5a:	2b03      	cmp	r3, #3
 8001f5c:	d109      	bne.n	8001f72 <USBD_CDC_Setup+0xb0>
 8001f5e:	2201      	movs	r2, #1
 8001f60:	f10d 0105 	add.w	r1, sp, #5
 8001f64:	f000 fc1d 	bl	80027a2 <USBD_CtlSendData>
 8001f68:	e7d0      	b.n	8001f0c <USBD_CDC_Setup+0x4a>
 8001f6a:	f890 329c 	ldrb.w	r3, [r0, #668]	; 0x29c
 8001f6e:	2b03      	cmp	r3, #3
 8001f70:	d0cc      	beq.n	8001f0c <USBD_CDC_Setup+0x4a>
 8001f72:	4631      	mov	r1, r6
 8001f74:	4628      	mov	r0, r5
 8001f76:	f000 fbed 	bl	8002754 <USBD_CtlError>
 8001f7a:	2402      	movs	r4, #2
 8001f7c:	e7c6      	b.n	8001f0c <USBD_CDC_Setup+0x4a>

08001f7e <USBD_CDC_DeInit>:
 8001f7e:	b538      	push	{r3, r4, r5, lr}
 8001f80:	4604      	mov	r4, r0
 8001f82:	2500      	movs	r5, #0
 8001f84:	2181      	movs	r1, #129	; 0x81
 8001f86:	f000 ffe1 	bl	8002f4c <USBD_LL_CloseEP>
 8001f8a:	2101      	movs	r1, #1
 8001f8c:	62e5      	str	r5, [r4, #44]	; 0x2c
 8001f8e:	4620      	mov	r0, r4
 8001f90:	f000 ffdc 	bl	8002f4c <USBD_LL_CloseEP>
 8001f94:	f8c4 516c 	str.w	r5, [r4, #364]	; 0x16c
 8001f98:	2182      	movs	r1, #130	; 0x82
 8001f9a:	4620      	mov	r0, r4
 8001f9c:	f000 ffd6 	bl	8002f4c <USBD_LL_CloseEP>
 8001fa0:	f8d4 32b8 	ldr.w	r3, [r4, #696]	; 0x2b8
 8001fa4:	6425      	str	r5, [r4, #64]	; 0x40
 8001fa6:	b14b      	cbz	r3, 8001fbc <USBD_CDC_DeInit+0x3e>
 8001fa8:	f8d4 32bc 	ldr.w	r3, [r4, #700]	; 0x2bc
 8001fac:	685b      	ldr	r3, [r3, #4]
 8001fae:	4798      	blx	r3
 8001fb0:	f8d4 02b8 	ldr.w	r0, [r4, #696]	; 0x2b8
 8001fb4:	f001 f836 	bl	8003024 <USBD_static_free>
 8001fb8:	f8c4 52b8 	str.w	r5, [r4, #696]	; 0x2b8
 8001fbc:	2000      	movs	r0, #0
 8001fbe:	bd38      	pop	{r3, r4, r5, pc}

08001fc0 <USBD_CDC_Init>:
 8001fc0:	7c03      	ldrb	r3, [r0, #16]
 8001fc2:	e92d 41f0 	stmdb	sp!, {r4, r5, r6, r7, r8, lr}
 8001fc6:	4604      	mov	r4, r0
 8001fc8:	bbcb      	cbnz	r3, 800203e <USBD_CDC_Init+0x7e>
 8001fca:	f44f 7300 	mov.w	r3, #512	; 0x200
 8001fce:	2202      	movs	r2, #2
 8001fd0:	2181      	movs	r1, #129	; 0x81
 8001fd2:	2501      	movs	r5, #1
 8001fd4:	f000 ffaa 	bl	8002f2c <USBD_LL_OpenEP>
 8001fd8:	f44f 7300 	mov.w	r3, #512	; 0x200
 8001fdc:	62e5      	str	r5, [r4, #44]	; 0x2c
 8001fde:	4629      	mov	r1, r5
 8001fe0:	2202      	movs	r2, #2
 8001fe2:	4620      	mov	r0, r4
 8001fe4:	f000 ffa2 	bl	8002f2c <USBD_LL_OpenEP>
 8001fe8:	f8c4 516c 	str.w	r5, [r4, #364]	; 0x16c
 8001fec:	2501      	movs	r5, #1
 8001fee:	2308      	movs	r3, #8
 8001ff0:	2203      	movs	r2, #3
 8001ff2:	2182      	movs	r1, #130	; 0x82
 8001ff4:	4620      	mov	r0, r4
 8001ff6:	f000 ff99 	bl	8002f2c <USBD_LL_OpenEP>
 8001ffa:	6425      	str	r5, [r4, #64]	; 0x40
 8001ffc:	f44f 7007 	mov.w	r0, #540	; 0x21c
 8002000:	f001 f80c 	bl	800301c <USBD_static_malloc>
 8002004:	4606      	mov	r6, r0
 8002006:	f8c4 02b8 	str.w	r0, [r4, #696]	; 0x2b8
 800200a:	b358      	cbz	r0, 8002064 <USBD_CDC_Init+0xa4>
 800200c:	2700      	movs	r7, #0
 800200e:	f8d4 32bc 	ldr.w	r3, [r4, #700]	; 0x2bc
 8002012:	681b      	ldr	r3, [r3, #0]
 8002014:	4798      	blx	r3
 8002016:	f894 8010 	ldrb.w	r8, [r4, #16]
 800201a:	f8c6 7214 	str.w	r7, [r6, #532]	; 0x214
 800201e:	f8c6 7218 	str.w	r7, [r6, #536]	; 0x218
 8002022:	f1b8 0f00 	cmp.w	r8, #0
 8002026:	d113      	bne.n	8002050 <USBD_CDC_Init+0x90>
 8002028:	f44f 7300 	mov.w	r3, #512	; 0x200
 800202c:	f8d6 2204 	ldr.w	r2, [r6, #516]	; 0x204
 8002030:	4629      	mov	r1, r5
 8002032:	4620      	mov	r0, r4
 8002034:	f000 ffe0 	bl	8002ff8 <USBD_LL_PrepareReceive>
 8002038:	4640      	mov	r0, r8
 800203a:	e8bd 81f0 	ldmia.w	sp!, {r4, r5, r6, r7, r8, pc}
 800203e:	2501      	movs	r5, #1
 8002040:	2340      	movs	r3, #64	; 0x40
 8002042:	2202      	movs	r2, #2
 8002044:	2181      	movs	r1, #129	; 0x81
 8002046:	f000 ff71 	bl	8002f2c <USBD_LL_OpenEP>
 800204a:	62e5      	str	r5, [r4, #44]	; 0x2c
 800204c:	2340      	movs	r3, #64	; 0x40
 800204e:	e7c6      	b.n	8001fde <USBD_CDC_Init+0x1e>
 8002050:	2340      	movs	r3, #64	; 0x40
 8002052:	f8d6 2204 	ldr.w	r2, [r6, #516]	; 0x204
 8002056:	4629      	mov	r1, r5
 8002058:	4620      	mov	r0, r4
 800205a:	f000 ffcd 	bl	8002ff8 <USBD_LL_PrepareReceive>
 800205e:	4638      	mov	r0, r7
 8002060:	e8bd 81f0 	ldmia.w	sp!, {r4, r5, r6, r7, r8, pc}
 8002064:	4628      	mov	r0, r5
 8002066:	e8bd 81f0 	ldmia.w	sp!, {r4, r5, r6, r7, r8, pc}

0800206a <USBD_CDC_RegisterInterface>:
 800206a:	b119      	cbz	r1, 8002074 <USBD_CDC_RegisterInterface+0xa>
 800206c:	f8c0 12bc 	str.w	r1, [r0, #700]	; 0x2bc
 8002070:	2000      	movs	r0, #0
 8002072:	4770      	bx	lr
 8002074:	2002      	movs	r0, #2
 8002076:	4770      	bx	lr

08002078 <USBD_CDC_SetTxBuffer>:
 8002078:	f8d0 32b8 	ldr.w	r3, [r0, #696]	; 0x2b8
 800207c:	2000      	movs	r0, #0
 800207e:	f8c3 1208 	str.w	r1, [r3, #520]	; 0x208
 8002082:	f8c3 2210 	str.w	r2, [r3, #528]	; 0x210
 8002086:	4770      	bx	lr

08002088 <USBD_CDC_SetRxBuffer>:
 8002088:	f8d0 32b8 	ldr.w	r3, [r0, #696]	; 0x2b8
 800208c:	2000      	movs	r0, #0
 800208e:	f8c3 1204 	str.w	r1, [r3, #516]	; 0x204
 8002092:	4770      	bx	lr

08002094 <USBD_CDC_ReceivePacket>:
 8002094:	f8d0 22b8 	ldr.w	r2, [r0, #696]	; 0x2b8
 8002098:	b510      	push	{r4, lr}
 800209a:	b162      	cbz	r2, 80020b6 <USBD_CDC_ReceivePacket+0x22>
 800209c:	7c04      	ldrb	r4, [r0, #16]
 800209e:	b944      	cbnz	r4, 80020b2 <USBD_CDC_ReceivePacket+0x1e>
 80020a0:	f44f 7300 	mov.w	r3, #512	; 0x200
 80020a4:	f8d2 2204 	ldr.w	r2, [r2, #516]	; 0x204
 80020a8:	2101      	movs	r1, #1
 80020aa:	f000 ffa5 	bl	8002ff8 <USBD_LL_PrepareReceive>
 80020ae:	2000      	movs	r0, #0
 80020b0:	bd10      	pop	{r4, pc}
 80020b2:	2340      	movs	r3, #64	; 0x40
 80020b4:	e7f6      	b.n	80020a4 <USBD_CDC_ReceivePacket+0x10>
 80020b6:	2002      	movs	r0, #2
 80020b8:	bd10      	pop	{r4, pc}
	...

080020bc <USBD_Init>:
 80020bc:	b508      	push	{r3, lr}
 80020be:	b950      	cbnz	r0, 80020d6 <USBD_Init+0x1a>
 80020c0:	480d      	ldr	r0, [pc, #52]	; (80020f8 <USBD_Init+0x3c>)
 80020c2:	f001 f881 	bl	80031c8 <iprintf>
 80020c6:	480d      	ldr	r0, [pc, #52]	; (80020fc <USBD_Init+0x40>)
 80020c8:	f001 f87e 	bl	80031c8 <iprintf>
 80020cc:	200a      	movs	r0, #10
 80020ce:	f001 f893 	bl	80031f8 <putchar>
 80020d2:	2002      	movs	r0, #2
 80020d4:	bd08      	pop	{r3, pc}
 80020d6:	f8d0 32b4 	ldr.w	r3, [r0, #692]	; 0x2b4
 80020da:	b113      	cbz	r3, 80020e2 <USBD_Init+0x26>
 80020dc:	2300      	movs	r3, #0
 80020de:	f8c0 32b4 	str.w	r3, [r0, #692]	; 0x2b4
 80020e2:	b109      	cbz	r1, 80020e8 <USBD_Init+0x2c>
 80020e4:	f8c0 12b0 	str.w	r1, [r0, #688]	; 0x2b0
 80020e8:	2301      	movs	r3, #1
 80020ea:	7002      	strb	r2, [r0, #0]
 80020ec:	f880 329c 	strb.w	r3, [r0, #668]	; 0x29c
 80020f0:	f000 fece 	bl	8002e90 <USBD_LL_Init>
 80020f4:	2000      	movs	r0, #0
 80020f6:	bd08      	pop	{r3, pc}
 80020f8:	0800408c 	.word	0x0800408c
 80020fc:	08004094 	.word	0x08004094

08002100 <USBD_RegisterClass>:
 8002100:	b508      	push	{r3, lr}
 8002102:	b119      	cbz	r1, 800210c <USBD_RegisterClass+0xc>
 8002104:	f8c0 12b4 	str.w	r1, [r0, #692]	; 0x2b4
 8002108:	2000      	movs	r0, #0
 800210a:	bd08      	pop	{r3, pc}
 800210c:	4805      	ldr	r0, [pc, #20]	; (8002124 <USBD_RegisterClass+0x24>)
 800210e:	f001 f85b 	bl	80031c8 <iprintf>
 8002112:	4805      	ldr	r0, [pc, #20]	; (8002128 <USBD_RegisterClass+0x28>)
 8002114:	f001 f858 	bl	80031c8 <iprintf>
 8002118:	200a      	movs	r0, #10
 800211a:	f001 f86d 	bl	80031f8 <putchar>
 800211e:	2002      	movs	r0, #2
 8002120:	bd08      	pop	{r3, pc}
 8002122:	bf00      	nop
 8002124:	0800408c 	.word	0x0800408c
 8002128:	080040aa 	.word	0x080040aa

0800212c <USBD_Start>:
 800212c:	b508      	push	{r3, lr}
 800212e:	f000 feef 	bl	8002f10 <USBD_LL_Start>
 8002132:	2000      	movs	r0, #0
 8002134:	bd08      	pop	{r3, pc}

08002136 <USBD_SetClassConfig>:
 8002136:	b508      	push	{r3, lr}
 8002138:	f8d0 32b4 	ldr.w	r3, [r0, #692]	; 0x2b4
 800213c:	b90b      	cbnz	r3, 8002142 <USBD_SetClassConfig+0xc>
 800213e:	2002      	movs	r0, #2
 8002140:	bd08      	pop	{r3, pc}
 8002142:	681b      	ldr	r3, [r3, #0]
 8002144:	4798      	blx	r3
 8002146:	2800      	cmp	r0, #0
 8002148:	d1f9      	bne.n	800213e <USBD_SetClassConfig+0x8>
 800214a:	bd08      	pop	{r3, pc}

0800214c <USBD_ClrClassConfig>:
 800214c:	b508      	push	{r3, lr}
 800214e:	f8d0 32b4 	ldr.w	r3, [r0, #692]	; 0x2b4
 8002152:	685b      	ldr	r3, [r3, #4]
 8002154:	4798      	blx	r3
 8002156:	2000      	movs	r0, #0
 8002158:	bd08      	pop	{r3, pc}

0800215a <USBD_LL_SetupStage>:
 800215a:	b538      	push	{r3, r4, r5, lr}
 800215c:	f500 752a 	add.w	r5, r0, #680	; 0x2a8
 8002160:	4604      	mov	r4, r0
 8002162:	4628      	mov	r0, r5
 8002164:	f000 fae2 	bl	800272c <USBD_ParseSetupRequest>
 8002168:	2301      	movs	r3, #1
 800216a:	f894 12a8 	ldrb.w	r1, [r4, #680]	; 0x2a8
 800216e:	f8c4 3294 	str.w	r3, [r4, #660]	; 0x294
 8002172:	f8b4 32ae 	ldrh.w	r3, [r4, #686]	; 0x2ae
 8002176:	f8c4 3298 	str.w	r3, [r4, #664]	; 0x298
 800217a:	f001 031f 	and.w	r3, r1, #31
 800217e:	2b01      	cmp	r3, #1
 8002180:	d00e      	beq.n	80021a0 <USBD_LL_SetupStage+0x46>
 8002182:	d307      	bcc.n	8002194 <USBD_LL_SetupStage+0x3a>
 8002184:	2b02      	cmp	r3, #2
 8002186:	d010      	beq.n	80021aa <USBD_LL_SetupStage+0x50>
 8002188:	f001 0180 	and.w	r1, r1, #128	; 0x80
 800218c:	4620      	mov	r0, r4
 800218e:	f000 feeb 	bl	8002f68 <USBD_LL_StallEP>
 8002192:	e003      	b.n	800219c <USBD_LL_SetupStage+0x42>
 8002194:	4629      	mov	r1, r5
 8002196:	4620      	mov	r0, r4
 8002198:	f000 f8f6 	bl	8002388 <USBD_StdDevReq>
 800219c:	2000      	movs	r0, #0
 800219e:	bd38      	pop	{r3, r4, r5, pc}
 80021a0:	4629      	mov	r1, r5
 80021a2:	4620      	mov	r0, r4
 80021a4:	f000 fa14 	bl	80025d0 <USBD_StdItfReq>
 80021a8:	e7f8      	b.n	800219c <USBD_LL_SetupStage+0x42>
 80021aa:	4629      	mov	r1, r5
 80021ac:	4620      	mov	r0, r4
 80021ae:	f000 fa34 	bl	800261a <USBD_StdEPReq>
 80021b2:	e7f3      	b.n	800219c <USBD_LL_SetupStage+0x42>

080021b4 <USBD_LL_DataOutStage>:
 80021b4:	b570      	push	{r4, r5, r6, lr}
 80021b6:	4605      	mov	r5, r0
 80021b8:	4616      	mov	r6, r2
 80021ba:	bb49      	cbnz	r1, 8002210 <USBD_LL_DataOutStage+0x5c>
 80021bc:	f8d0 3294 	ldr.w	r3, [r0, #660]	; 0x294
 80021c0:	2b03      	cmp	r3, #3
 80021c2:	d11e      	bne.n	8002202 <USBD_LL_DataOutStage+0x4e>
 80021c4:	f8d0 3160 	ldr.w	r3, [r0, #352]	; 0x160
 80021c8:	f8d0 2164 	ldr.w	r2, [r0, #356]	; 0x164
 80021cc:	4293      	cmp	r3, r2
 80021ce:	d90b      	bls.n	80021e8 <USBD_LL_DataOutStage+0x34>
 80021d0:	1a9b      	subs	r3, r3, r2
 80021d2:	429a      	cmp	r2, r3
 80021d4:	f8c0 3160 	str.w	r3, [r0, #352]	; 0x160
 80021d8:	bf8c      	ite	hi
 80021da:	b29a      	uxthhi	r2, r3
 80021dc:	b292      	uxthls	r2, r2
 80021de:	4631      	mov	r1, r6
 80021e0:	f000 fb03 	bl	80027ea <USBD_CtlContinueRx>
 80021e4:	2000      	movs	r0, #0
 80021e6:	bd70      	pop	{r4, r5, r6, pc}
 80021e8:	f8d0 32b4 	ldr.w	r3, [r0, #692]	; 0x2b4
 80021ec:	691b      	ldr	r3, [r3, #16]
 80021ee:	b123      	cbz	r3, 80021fa <USBD_LL_DataOutStage+0x46>
 80021f0:	f890 229c 	ldrb.w	r2, [r0, #668]	; 0x29c
 80021f4:	2a03      	cmp	r2, #3
 80021f6:	d100      	bne.n	80021fa <USBD_LL_DataOutStage+0x46>
 80021f8:	4798      	blx	r3
 80021fa:	4628      	mov	r0, r5
 80021fc:	f000 fafd 	bl	80027fa <USBD_CtlSendStatus>
 8002200:	e7f0      	b.n	80021e4 <USBD_LL_DataOutStage+0x30>
 8002202:	2b05      	cmp	r3, #5
 8002204:	d1ee      	bne.n	80021e4 <USBD_LL_DataOutStage+0x30>
 8002206:	f8c5 1294 	str.w	r1, [r5, #660]	; 0x294
 800220a:	f000 fead 	bl	8002f68 <USBD_LL_StallEP>
 800220e:	e7e9      	b.n	80021e4 <USBD_LL_DataOutStage+0x30>
 8002210:	f8d0 32b4 	ldr.w	r3, [r0, #692]	; 0x2b4
 8002214:	699b      	ldr	r3, [r3, #24]
 8002216:	b12b      	cbz	r3, 8002224 <USBD_LL_DataOutStage+0x70>
 8002218:	f890 229c 	ldrb.w	r2, [r0, #668]	; 0x29c
 800221c:	2a03      	cmp	r2, #3
 800221e:	d101      	bne.n	8002224 <USBD_LL_DataOutStage+0x70>
 8002220:	4798      	blx	r3
 8002222:	e7df      	b.n	80021e4 <USBD_LL_DataOutStage+0x30>
 8002224:	2002      	movs	r0, #2
 8002226:	bd70      	pop	{r4, r5, r6, pc}

08002228 <USBD_LL_DataInStage>:
 8002228:	b570      	push	{r4, r5, r6, lr}
 800222a:	4613      	mov	r3, r2
 800222c:	4604      	mov	r4, r0
 800222e:	460e      	mov	r6, r1
 8002230:	2900      	cmp	r1, #0
 8002232:	d147      	bne.n	80022c4 <USBD_LL_DataInStage+0x9c>
 8002234:	f8d0 2294 	ldr.w	r2, [r0, #660]	; 0x294
 8002238:	2a02      	cmp	r2, #2
 800223a:	d13c      	bne.n	80022b6 <USBD_LL_DataInStage+0x8e>
 800223c:	6a05      	ldr	r5, [r0, #32]
 800223e:	6a42      	ldr	r2, [r0, #36]	; 0x24
 8002240:	4295      	cmp	r5, r2
 8002242:	d913      	bls.n	800226c <USBD_LL_DataInStage+0x44>
 8002244:	1aaa      	subs	r2, r5, r2
 8002246:	6202      	str	r2, [r0, #32]
 8002248:	4619      	mov	r1, r3
 800224a:	b292      	uxth	r2, r2
 800224c:	f000 fab6 	bl	80027bc <USBD_CtlContinueSendData>
 8002250:	4633      	mov	r3, r6
 8002252:	461a      	mov	r2, r3
 8002254:	4619      	mov	r1, r3
 8002256:	4620      	mov	r0, r4
 8002258:	f000 fece 	bl	8002ff8 <USBD_LL_PrepareReceive>
 800225c:	f894 32a0 	ldrb.w	r3, [r4, #672]	; 0x2a0
 8002260:	2000      	movs	r0, #0
 8002262:	2b01      	cmp	r3, #1
 8002264:	d13a      	bne.n	80022dc <USBD_LL_DataInStage+0xb4>
 8002266:	f884 02a0 	strb.w	r0, [r4, #672]	; 0x2a0
 800226a:	bd70      	pop	{r4, r5, r6, pc}
 800226c:	69c3      	ldr	r3, [r0, #28]
 800226e:	fbb3 f5f2 	udiv	r5, r3, r2
 8002272:	fb02 3515 	mls	r5, r2, r5, r3
 8002276:	b965      	cbnz	r5, 8002292 <USBD_LL_DataInStage+0x6a>
 8002278:	429a      	cmp	r2, r3
 800227a:	d80a      	bhi.n	8002292 <USBD_LL_DataInStage+0x6a>
 800227c:	f8d0 2298 	ldr.w	r2, [r0, #664]	; 0x298
 8002280:	4293      	cmp	r3, r2
 8002282:	d206      	bcs.n	8002292 <USBD_LL_DataInStage+0x6a>
 8002284:	462a      	mov	r2, r5
 8002286:	f000 fa99 	bl	80027bc <USBD_CtlContinueSendData>
 800228a:	f8c4 5298 	str.w	r5, [r4, #664]	; 0x298
 800228e:	462b      	mov	r3, r5
 8002290:	e7df      	b.n	8002252 <USBD_LL_DataInStage+0x2a>
 8002292:	f8d4 32b4 	ldr.w	r3, [r4, #692]	; 0x2b4
 8002296:	68db      	ldr	r3, [r3, #12]
 8002298:	b12b      	cbz	r3, 80022a6 <USBD_LL_DataInStage+0x7e>
 800229a:	f894 229c 	ldrb.w	r2, [r4, #668]	; 0x29c
 800229e:	2a03      	cmp	r2, #3
 80022a0:	d101      	bne.n	80022a6 <USBD_LL_DataInStage+0x7e>
 80022a2:	4620      	mov	r0, r4
 80022a4:	4798      	blx	r3
 80022a6:	2180      	movs	r1, #128	; 0x80
 80022a8:	4620      	mov	r0, r4
 80022aa:	f000 fe5d 	bl	8002f68 <USBD_LL_StallEP>
 80022ae:	4620      	mov	r0, r4
 80022b0:	f000 faae 	bl	8002810 <USBD_CtlReceiveStatus>
 80022b4:	e7d2      	b.n	800225c <USBD_LL_DataInStage+0x34>
 80022b6:	f032 0304 	bics.w	r3, r2, #4
 80022ba:	d1cf      	bne.n	800225c <USBD_LL_DataInStage+0x34>
 80022bc:	2180      	movs	r1, #128	; 0x80
 80022be:	f000 fe53 	bl	8002f68 <USBD_LL_StallEP>
 80022c2:	e7cb      	b.n	800225c <USBD_LL_DataInStage+0x34>
 80022c4:	f8d0 32b4 	ldr.w	r3, [r0, #692]	; 0x2b4
 80022c8:	695b      	ldr	r3, [r3, #20]
 80022ca:	b133      	cbz	r3, 80022da <USBD_LL_DataInStage+0xb2>
 80022cc:	f890 229c 	ldrb.w	r2, [r0, #668]	; 0x29c
 80022d0:	2a03      	cmp	r2, #3
 80022d2:	d102      	bne.n	80022da <USBD_LL_DataInStage+0xb2>
 80022d4:	4798      	blx	r3
 80022d6:	2000      	movs	r0, #0
 80022d8:	bd70      	pop	{r4, r5, r6, pc}
 80022da:	2002      	movs	r0, #2
 80022dc:	bd70      	pop	{r4, r5, r6, pc}

080022de <USBD_LL_Reset>:
 80022de:	2200      	movs	r2, #0
 80022e0:	b570      	push	{r4, r5, r6, lr}
 80022e2:	4604      	mov	r4, r0
 80022e4:	2501      	movs	r5, #1
 80022e6:	2640      	movs	r6, #64	; 0x40
 80022e8:	4611      	mov	r1, r2
 80022ea:	2340      	movs	r3, #64	; 0x40
 80022ec:	f000 fe1e 	bl	8002f2c <USBD_LL_OpenEP>
 80022f0:	4633      	mov	r3, r6
 80022f2:	2180      	movs	r1, #128	; 0x80
 80022f4:	f8c4 5158 	str.w	r5, [r4, #344]	; 0x158
 80022f8:	f8c4 6164 	str.w	r6, [r4, #356]	; 0x164
 80022fc:	2200      	movs	r2, #0
 80022fe:	4620      	mov	r0, r4
 8002300:	f000 fe14 	bl	8002f2c <USBD_LL_OpenEP>
 8002304:	2100      	movs	r1, #0
 8002306:	f8d4 32b8 	ldr.w	r3, [r4, #696]	; 0x2b8
 800230a:	61a5      	str	r5, [r4, #24]
 800230c:	6266      	str	r6, [r4, #36]	; 0x24
 800230e:	f884 529c 	strb.w	r5, [r4, #668]	; 0x29c
 8002312:	f8c4 1294 	str.w	r1, [r4, #660]	; 0x294
 8002316:	6061      	str	r1, [r4, #4]
 8002318:	f8c4 12a4 	str.w	r1, [r4, #676]	; 0x2a4
 800231c:	b123      	cbz	r3, 8002328 <USBD_LL_Reset+0x4a>
 800231e:	f8d4 32b4 	ldr.w	r3, [r4, #692]	; 0x2b4
 8002322:	4620      	mov	r0, r4
 8002324:	685b      	ldr	r3, [r3, #4]
 8002326:	4798      	blx	r3
 8002328:	2000      	movs	r0, #0
 800232a:	bd70      	pop	{r4, r5, r6, pc}

0800232c <USBD_LL_SetSpeed>:
 800232c:	7401      	strb	r1, [r0, #16]
 800232e:	2000      	movs	r0, #0
 8002330:	4770      	bx	lr

08002332 <USBD_LL_Suspend>:
 8002332:	f890 329c 	ldrb.w	r3, [r0, #668]	; 0x29c
 8002336:	f880 329d 	strb.w	r3, [r0, #669]	; 0x29d
 800233a:	2304      	movs	r3, #4
 800233c:	f880 329c 	strb.w	r3, [r0, #668]	; 0x29c
 8002340:	2000      	movs	r0, #0
 8002342:	4770      	bx	lr

08002344 <USBD_LL_Resume>:
 8002344:	f890 329c 	ldrb.w	r3, [r0, #668]	; 0x29c
 8002348:	2b04      	cmp	r3, #4
 800234a:	bf04      	itt	eq
 800234c:	f890 329d 	ldrbeq.w	r3, [r0, #669]	; 0x29d
 8002350:	f880 329c 	strbeq.w	r3, [r0, #668]	; 0x29c
 8002354:	2000      	movs	r0, #0
 8002356:	4770      	bx	lr

08002358 <USBD_LL_SOF>:
 8002358:	b508      	push	{r3, lr}
 800235a:	f890 229c 	ldrb.w	r2, [r0, #668]	; 0x29c
 800235e:	2a03      	cmp	r2, #3
 8002360:	d104      	bne.n	800236c <USBD_LL_SOF+0x14>
 8002362:	f8d0 32b4 	ldr.w	r3, [r0, #692]	; 0x2b4
 8002366:	69db      	ldr	r3, [r3, #28]
 8002368:	b103      	cbz	r3, 800236c <USBD_LL_SOF+0x14>
 800236a:	4798      	blx	r3
 800236c:	2000      	movs	r0, #0
 800236e:	bd08      	pop	{r3, pc}

08002370 <USBD_CtlError.constprop.1>:
 8002370:	b510      	push	{r4, lr}
 8002372:	4604      	mov	r4, r0
 8002374:	2180      	movs	r1, #128	; 0x80
 8002376:	f000 fdf7 	bl	8002f68 <USBD_LL_StallEP>
 800237a:	4620      	mov	r0, r4
 800237c:	e8bd 4010 	ldmia.w	sp!, {r4, lr}
 8002380:	2100      	movs	r1, #0
 8002382:	f000 bdf1 	b.w	8002f68 <USBD_LL_StallEP>
	...

08002388 <USBD_StdDevReq>:
 8002388:	b537      	push	{r0, r1, r2, r4, r5, lr}
 800238a:	780b      	ldrb	r3, [r1, #0]
 800238c:	4604      	mov	r4, r0
 800238e:	f003 0360 	and.w	r3, r3, #96	; 0x60
 8002392:	2b20      	cmp	r3, #32
 8002394:	460d      	mov	r5, r1
 8002396:	d012      	beq.n	80023be <USBD_StdDevReq+0x36>
 8002398:	2b40      	cmp	r3, #64	; 0x40
 800239a:	d010      	beq.n	80023be <USBD_StdDevReq+0x36>
 800239c:	2b00      	cmp	r3, #0
 800239e:	d15c      	bne.n	800245a <USBD_StdDevReq+0xd2>
 80023a0:	784b      	ldrb	r3, [r1, #1]
 80023a2:	2b09      	cmp	r3, #9
 80023a4:	d858      	bhi.n	8002458 <USBD_StdDevReq+0xd0>
 80023a6:	e8df f013 	tbh	[pc, r3, lsl #1]
 80023aa:	00e9      	.short	0x00e9
 80023ac:	00570105 	.word	0x00570105
 80023b0:	005700fe 	.word	0x005700fe
 80023b4:	00130084 	.word	0x00130084
 80023b8:	00d20057 	.word	0x00d20057
 80023bc:	00a0      	.short	0x00a0
 80023be:	f8d4 32b4 	ldr.w	r3, [r4, #692]	; 0x2b4
 80023c2:	4629      	mov	r1, r5
 80023c4:	689b      	ldr	r3, [r3, #8]
 80023c6:	4620      	mov	r0, r4
 80023c8:	4798      	blx	r3
 80023ca:	2000      	movs	r0, #0
 80023cc:	b003      	add	sp, #12
 80023ce:	bd30      	pop	{r4, r5, pc}
 80023d0:	2300      	movs	r3, #0
 80023d2:	f8ad 3006 	strh.w	r3, [sp, #6]
 80023d6:	884b      	ldrh	r3, [r1, #2]
 80023d8:	0a1a      	lsrs	r2, r3, #8
 80023da:	3a01      	subs	r2, #1
 80023dc:	2a06      	cmp	r2, #6
 80023de:	d83b      	bhi.n	8002458 <USBD_StdDevReq+0xd0>
 80023e0:	e8df f002 	tbb	[pc, r2]
 80023e4:	3a2d2004 	.word	0x3a2d2004
 80023e8:	523a      	.short	0x523a
 80023ea:	5c          	.byte	0x5c
 80023eb:	00          	.byte	0x00
 80023ec:	f8d0 32b0 	ldr.w	r3, [r0, #688]	; 0x2b0
 80023f0:	681b      	ldr	r3, [r3, #0]
 80023f2:	f10d 0106 	add.w	r1, sp, #6
 80023f6:	7c20      	ldrb	r0, [r4, #16]
 80023f8:	4798      	blx	r3
 80023fa:	f8bd 2006 	ldrh.w	r2, [sp, #6]
 80023fe:	b152      	cbz	r2, 8002416 <USBD_StdDevReq+0x8e>
 8002400:	88eb      	ldrh	r3, [r5, #6]
 8002402:	b143      	cbz	r3, 8002416 <USBD_StdDevReq+0x8e>
 8002404:	429a      	cmp	r2, r3
 8002406:	bf28      	it	cs
 8002408:	461a      	movcs	r2, r3
 800240a:	4601      	mov	r1, r0
 800240c:	4620      	mov	r0, r4
 800240e:	f8ad 2006 	strh.w	r2, [sp, #6]
 8002412:	f000 f9c6 	bl	80027a2 <USBD_CtlSendData>
 8002416:	88eb      	ldrh	r3, [r5, #6]
 8002418:	2b00      	cmp	r3, #0
 800241a:	d1d6      	bne.n	80023ca <USBD_StdDevReq+0x42>
 800241c:	4620      	mov	r0, r4
 800241e:	f000 f9ec 	bl	80027fa <USBD_CtlSendStatus>
 8002422:	e7d2      	b.n	80023ca <USBD_StdDevReq+0x42>
 8002424:	7c02      	ldrb	r2, [r0, #16]
 8002426:	f8d0 32b4 	ldr.w	r3, [r0, #692]	; 0x2b4
 800242a:	b932      	cbnz	r2, 800243a <USBD_StdDevReq+0xb2>
 800242c:	6a9b      	ldr	r3, [r3, #40]	; 0x28
 800242e:	f10d 0006 	add.w	r0, sp, #6
 8002432:	4798      	blx	r3
 8002434:	2302      	movs	r3, #2
 8002436:	7043      	strb	r3, [r0, #1]
 8002438:	e7df      	b.n	80023fa <USBD_StdDevReq+0x72>
 800243a:	6adb      	ldr	r3, [r3, #44]	; 0x2c
 800243c:	e7f7      	b.n	800242e <USBD_StdDevReq+0xa6>
 800243e:	b2db      	uxtb	r3, r3
 8002440:	2b05      	cmp	r3, #5
 8002442:	d809      	bhi.n	8002458 <USBD_StdDevReq+0xd0>
 8002444:	e8df f003 	tbb	[pc, r3]
 8002448:	14100c03 	.word	0x14100c03
 800244c:	1c18      	.short	0x1c18
 800244e:	f8d0 32b0 	ldr.w	r3, [r0, #688]	; 0x2b0
 8002452:	685b      	ldr	r3, [r3, #4]
 8002454:	2b00      	cmp	r3, #0
 8002456:	d1cc      	bne.n	80023f2 <USBD_StdDevReq+0x6a>
 8002458:	4620      	mov	r0, r4
 800245a:	f7ff ff89 	bl	8002370 <USBD_CtlError.constprop.1>
 800245e:	e7b4      	b.n	80023ca <USBD_StdDevReq+0x42>
 8002460:	f8d0 32b0 	ldr.w	r3, [r0, #688]	; 0x2b0
 8002464:	689b      	ldr	r3, [r3, #8]
 8002466:	e7f5      	b.n	8002454 <USBD_StdDevReq+0xcc>
 8002468:	f8d0 32b0 	ldr.w	r3, [r0, #688]	; 0x2b0
 800246c:	68db      	ldr	r3, [r3, #12]
 800246e:	e7f1      	b.n	8002454 <USBD_StdDevReq+0xcc>
 8002470:	f8d0 32b0 	ldr.w	r3, [r0, #688]	; 0x2b0
 8002474:	691b      	ldr	r3, [r3, #16]
 8002476:	e7ed      	b.n	8002454 <USBD_StdDevReq+0xcc>
 8002478:	f8d0 32b0 	ldr.w	r3, [r0, #688]	; 0x2b0
 800247c:	695b      	ldr	r3, [r3, #20]
 800247e:	e7e9      	b.n	8002454 <USBD_StdDevReq+0xcc>
 8002480:	f8d0 32b0 	ldr.w	r3, [r0, #688]	; 0x2b0
 8002484:	699b      	ldr	r3, [r3, #24]
 8002486:	e7e5      	b.n	8002454 <USBD_StdDevReq+0xcc>
 8002488:	7c03      	ldrb	r3, [r0, #16]
 800248a:	2b00      	cmp	r3, #0
 800248c:	d1e4      	bne.n	8002458 <USBD_StdDevReq+0xd0>
 800248e:	f8d0 32b4 	ldr.w	r3, [r0, #692]	; 0x2b4
 8002492:	f10d 0006 	add.w	r0, sp, #6
 8002496:	6b5b      	ldr	r3, [r3, #52]	; 0x34
 8002498:	4798      	blx	r3
 800249a:	e7ae      	b.n	80023fa <USBD_StdDevReq+0x72>
 800249c:	7c03      	ldrb	r3, [r0, #16]
 800249e:	2b00      	cmp	r3, #0
 80024a0:	d1da      	bne.n	8002458 <USBD_StdDevReq+0xd0>
 80024a2:	f8d0 32b4 	ldr.w	r3, [r0, #692]	; 0x2b4
 80024a6:	f10d 0006 	add.w	r0, sp, #6
 80024aa:	6b1b      	ldr	r3, [r3, #48]	; 0x30
 80024ac:	4798      	blx	r3
 80024ae:	2307      	movs	r3, #7
 80024b0:	e7c1      	b.n	8002436 <USBD_StdDevReq+0xae>
 80024b2:	888b      	ldrh	r3, [r1, #4]
 80024b4:	2b00      	cmp	r3, #0
 80024b6:	d1cf      	bne.n	8002458 <USBD_StdDevReq+0xd0>
 80024b8:	88cb      	ldrh	r3, [r1, #6]
 80024ba:	2b00      	cmp	r3, #0
 80024bc:	d1cc      	bne.n	8002458 <USBD_StdDevReq+0xd0>
 80024be:	884d      	ldrh	r5, [r1, #2]
 80024c0:	2d7f      	cmp	r5, #127	; 0x7f
 80024c2:	d8c9      	bhi.n	8002458 <USBD_StdDevReq+0xd0>
 80024c4:	f890 329c 	ldrb.w	r3, [r0, #668]	; 0x29c
 80024c8:	b2e9      	uxtb	r1, r5
 80024ca:	2b03      	cmp	r3, #3
 80024cc:	d0c4      	beq.n	8002458 <USBD_StdDevReq+0xd0>
 80024ce:	f880 129e 	strb.w	r1, [r0, #670]	; 0x29e
 80024d2:	f000 fd75 	bl	8002fc0 <USBD_LL_SetUSBAddress>
 80024d6:	4620      	mov	r0, r4
 80024d8:	f000 f98f 	bl	80027fa <USBD_CtlSendStatus>
 80024dc:	b11d      	cbz	r5, 80024e6 <USBD_StdDevReq+0x15e>
 80024de:	2302      	movs	r3, #2
 80024e0:	f884 329c 	strb.w	r3, [r4, #668]	; 0x29c
 80024e4:	e771      	b.n	80023ca <USBD_StdDevReq+0x42>
 80024e6:	2301      	movs	r3, #1
 80024e8:	e7fa      	b.n	80024e0 <USBD_StdDevReq+0x158>
 80024ea:	7889      	ldrb	r1, [r1, #2]
 80024ec:	4d37      	ldr	r5, [pc, #220]	; (80025cc <USBD_StdDevReq+0x244>)
 80024ee:	2901      	cmp	r1, #1
 80024f0:	7029      	strb	r1, [r5, #0]
 80024f2:	d8b1      	bhi.n	8002458 <USBD_StdDevReq+0xd0>
 80024f4:	f890 329c 	ldrb.w	r3, [r0, #668]	; 0x29c
 80024f8:	2b02      	cmp	r3, #2
 80024fa:	d008      	beq.n	800250e <USBD_StdDevReq+0x186>
 80024fc:	2b03      	cmp	r3, #3
 80024fe:	d014      	beq.n	800252a <USBD_StdDevReq+0x1a2>
 8002500:	f7ff ff36 	bl	8002370 <USBD_CtlError.constprop.1>
 8002504:	7829      	ldrb	r1, [r5, #0]
 8002506:	4620      	mov	r0, r4
 8002508:	f7ff fe20 	bl	800214c <USBD_ClrClassConfig>
 800250c:	e75d      	b.n	80023ca <USBD_StdDevReq+0x42>
 800250e:	2900      	cmp	r1, #0
 8002510:	d084      	beq.n	800241c <USBD_StdDevReq+0x94>
 8002512:	2101      	movs	r1, #1
 8002514:	2303      	movs	r3, #3
 8002516:	6041      	str	r1, [r0, #4]
 8002518:	f880 329c 	strb.w	r3, [r0, #668]	; 0x29c
 800251c:	4620      	mov	r0, r4
 800251e:	f7ff fe0a 	bl	8002136 <USBD_SetClassConfig>
 8002522:	2802      	cmp	r0, #2
 8002524:	f47f af7a 	bne.w	800241c <USBD_StdDevReq+0x94>
 8002528:	e796      	b.n	8002458 <USBD_StdDevReq+0xd0>
 800252a:	b931      	cbnz	r1, 800253a <USBD_StdDevReq+0x1b2>
 800252c:	2302      	movs	r3, #2
 800252e:	6041      	str	r1, [r0, #4]
 8002530:	f880 329c 	strb.w	r3, [r0, #668]	; 0x29c
 8002534:	f7ff fe0a 	bl	800214c <USBD_ClrClassConfig>
 8002538:	e770      	b.n	800241c <USBD_StdDevReq+0x94>
 800253a:	6841      	ldr	r1, [r0, #4]
 800253c:	2901      	cmp	r1, #1
 800253e:	f43f af6d 	beq.w	800241c <USBD_StdDevReq+0x94>
 8002542:	b2c9      	uxtb	r1, r1
 8002544:	f7ff fe02 	bl	800214c <USBD_ClrClassConfig>
 8002548:	7829      	ldrb	r1, [r5, #0]
 800254a:	6061      	str	r1, [r4, #4]
 800254c:	e7e6      	b.n	800251c <USBD_StdDevReq+0x194>
 800254e:	88ca      	ldrh	r2, [r1, #6]
 8002550:	2a01      	cmp	r2, #1
 8002552:	d181      	bne.n	8002458 <USBD_StdDevReq+0xd0>
 8002554:	f890 329c 	ldrb.w	r3, [r0, #668]	; 0x29c
 8002558:	2b00      	cmp	r3, #0
 800255a:	f43f af7d 	beq.w	8002458 <USBD_StdDevReq+0xd0>
 800255e:	2b02      	cmp	r3, #2
 8002560:	d904      	bls.n	800256c <USBD_StdDevReq+0x1e4>
 8002562:	2b03      	cmp	r3, #3
 8002564:	f47f af78 	bne.w	8002458 <USBD_StdDevReq+0xd0>
 8002568:	1d01      	adds	r1, r0, #4
 800256a:	e003      	b.n	8002574 <USBD_StdDevReq+0x1ec>
 800256c:	4601      	mov	r1, r0
 800256e:	2300      	movs	r3, #0
 8002570:	f841 3f08 	str.w	r3, [r1, #8]!
 8002574:	4620      	mov	r0, r4
 8002576:	f000 f914 	bl	80027a2 <USBD_CtlSendData>
 800257a:	e726      	b.n	80023ca <USBD_StdDevReq+0x42>
 800257c:	f890 329c 	ldrb.w	r3, [r0, #668]	; 0x29c
 8002580:	3b01      	subs	r3, #1
 8002582:	2b02      	cmp	r3, #2
 8002584:	f63f af68 	bhi.w	8002458 <USBD_StdDevReq+0xd0>
 8002588:	88cb      	ldrh	r3, [r1, #6]
 800258a:	2b02      	cmp	r3, #2
 800258c:	f47f af64 	bne.w	8002458 <USBD_StdDevReq+0xd0>
 8002590:	2301      	movs	r3, #1
 8002592:	60c3      	str	r3, [r0, #12]
 8002594:	f8d0 32a4 	ldr.w	r3, [r0, #676]	; 0x2a4
 8002598:	b10b      	cbz	r3, 800259e <USBD_StdDevReq+0x216>
 800259a:	2303      	movs	r3, #3
 800259c:	60c3      	str	r3, [r0, #12]
 800259e:	2202      	movs	r2, #2
 80025a0:	f104 010c 	add.w	r1, r4, #12
 80025a4:	e7e6      	b.n	8002574 <USBD_StdDevReq+0x1ec>
 80025a6:	884b      	ldrh	r3, [r1, #2]
 80025a8:	2b01      	cmp	r3, #1
 80025aa:	f47f af0e 	bne.w	80023ca <USBD_StdDevReq+0x42>
 80025ae:	f8c4 32a4 	str.w	r3, [r4, #676]	; 0x2a4
 80025b2:	e733      	b.n	800241c <USBD_StdDevReq+0x94>
 80025b4:	f890 329c 	ldrb.w	r3, [r0, #668]	; 0x29c
 80025b8:	3b01      	subs	r3, #1
 80025ba:	2b02      	cmp	r3, #2
 80025bc:	f63f af4c 	bhi.w	8002458 <USBD_StdDevReq+0xd0>
 80025c0:	884b      	ldrh	r3, [r1, #2]
 80025c2:	2b01      	cmp	r3, #1
 80025c4:	f47f af01 	bne.w	80023ca <USBD_StdDevReq+0x42>
 80025c8:	2300      	movs	r3, #0
 80025ca:	e7f0      	b.n	80025ae <USBD_StdDevReq+0x226>
 80025cc:	200001fc 	.word	0x200001fc

080025d0 <USBD_StdItfReq>:
 80025d0:	b538      	push	{r3, r4, r5, lr}
 80025d2:	780b      	ldrb	r3, [r1, #0]
 80025d4:	4604      	mov	r4, r0
 80025d6:	f003 0360 	and.w	r3, r3, #96	; 0x60
 80025da:	2b20      	cmp	r3, #32
 80025dc:	460d      	mov	r5, r1
 80025de:	d002      	beq.n	80025e6 <USBD_StdItfReq+0x16>
 80025e0:	2b40      	cmp	r3, #64	; 0x40
 80025e2:	d000      	beq.n	80025e6 <USBD_StdItfReq+0x16>
 80025e4:	b9b3      	cbnz	r3, 8002614 <USBD_StdItfReq+0x44>
 80025e6:	f894 329c 	ldrb.w	r3, [r4, #668]	; 0x29c
 80025ea:	3b01      	subs	r3, #1
 80025ec:	2b02      	cmp	r3, #2
 80025ee:	d810      	bhi.n	8002612 <USBD_StdItfReq+0x42>
 80025f0:	792b      	ldrb	r3, [r5, #4]
 80025f2:	2b01      	cmp	r3, #1
 80025f4:	d80d      	bhi.n	8002612 <USBD_StdItfReq+0x42>
 80025f6:	f8d4 32b4 	ldr.w	r3, [r4, #692]	; 0x2b4
 80025fa:	4629      	mov	r1, r5
 80025fc:	689b      	ldr	r3, [r3, #8]
 80025fe:	4620      	mov	r0, r4
 8002600:	4798      	blx	r3
 8002602:	88eb      	ldrh	r3, [r5, #6]
 8002604:	b91b      	cbnz	r3, 800260e <USBD_StdItfReq+0x3e>
 8002606:	b910      	cbnz	r0, 800260e <USBD_StdItfReq+0x3e>
 8002608:	4620      	mov	r0, r4
 800260a:	f000 f8f6 	bl	80027fa <USBD_CtlSendStatus>
 800260e:	2000      	movs	r0, #0
 8002610:	bd38      	pop	{r3, r4, r5, pc}
 8002612:	4620      	mov	r0, r4
 8002614:	f7ff feac 	bl	8002370 <USBD_CtlError.constprop.1>
 8002618:	e7f9      	b.n	800260e <USBD_StdItfReq+0x3e>

0800261a <USBD_StdEPReq>:
 800261a:	b538      	push	{r3, r4, r5, lr}
 800261c:	780a      	ldrb	r2, [r1, #0]
 800261e:	4604      	mov	r4, r0
 8002620:	f002 0260 	and.w	r2, r2, #96	; 0x60
 8002624:	2a20      	cmp	r2, #32
 8002626:	460b      	mov	r3, r1
 8002628:	d013      	beq.n	8002652 <USBD_StdEPReq+0x38>
 800262a:	2a40      	cmp	r2, #64	; 0x40
 800262c:	d011      	beq.n	8002652 <USBD_StdEPReq+0x38>
 800262e:	b96a      	cbnz	r2, 800264c <USBD_StdEPReq+0x32>
 8002630:	785d      	ldrb	r5, [r3, #1]
 8002632:	888a      	ldrh	r2, [r1, #4]
 8002634:	2d01      	cmp	r5, #1
 8002636:	b2d1      	uxtb	r1, r2
 8002638:	d01f      	beq.n	800267a <USBD_StdEPReq+0x60>
 800263a:	d335      	bcc.n	80026a8 <USBD_StdEPReq+0x8e>
 800263c:	2d03      	cmp	r5, #3
 800263e:	d105      	bne.n	800264c <USBD_StdEPReq+0x32>
 8002640:	f890 229c 	ldrb.w	r2, [r0, #668]	; 0x29c
 8002644:	2a02      	cmp	r2, #2
 8002646:	d026      	beq.n	8002696 <USBD_StdEPReq+0x7c>
 8002648:	2a03      	cmp	r2, #3
 800264a:	d00a      	beq.n	8002662 <USBD_StdEPReq+0x48>
 800264c:	f7ff fe90 	bl	8002370 <USBD_CtlError.constprop.1>
 8002650:	e005      	b.n	800265e <USBD_StdEPReq+0x44>
 8002652:	f8d4 22b4 	ldr.w	r2, [r4, #692]	; 0x2b4
 8002656:	4619      	mov	r1, r3
 8002658:	6892      	ldr	r2, [r2, #8]
 800265a:	4620      	mov	r0, r4
 800265c:	4790      	blx	r2
 800265e:	2000      	movs	r0, #0
 8002660:	bd38      	pop	{r3, r4, r5, pc}
 8002662:	885a      	ldrh	r2, [r3, #2]
 8002664:	b92a      	cbnz	r2, 8002672 <USBD_StdEPReq+0x58>
 8002666:	064a      	lsls	r2, r1, #25
 8002668:	d003      	beq.n	8002672 <USBD_StdEPReq+0x58>
 800266a:	88db      	ldrh	r3, [r3, #6]
 800266c:	b90b      	cbnz	r3, 8002672 <USBD_StdEPReq+0x58>
 800266e:	f000 fc7b 	bl	8002f68 <USBD_LL_StallEP>
 8002672:	4620      	mov	r0, r4
 8002674:	f000 f8c1 	bl	80027fa <USBD_CtlSendStatus>
 8002678:	e7f1      	b.n	800265e <USBD_StdEPReq+0x44>
 800267a:	f890 229c 	ldrb.w	r2, [r0, #668]	; 0x29c
 800267e:	2a02      	cmp	r2, #2
 8002680:	d009      	beq.n	8002696 <USBD_StdEPReq+0x7c>
 8002682:	2a03      	cmp	r2, #3
 8002684:	d1e2      	bne.n	800264c <USBD_StdEPReq+0x32>
 8002686:	885b      	ldrh	r3, [r3, #2]
 8002688:	2b00      	cmp	r3, #0
 800268a:	d1e8      	bne.n	800265e <USBD_StdEPReq+0x44>
 800268c:	064d      	lsls	r5, r1, #25
 800268e:	d0f0      	beq.n	8002672 <USBD_StdEPReq+0x58>
 8002690:	f000 fc78 	bl	8002f84 <USBD_LL_ClearStallEP>
 8002694:	e7ed      	b.n	8002672 <USBD_StdEPReq+0x58>
 8002696:	064b      	lsls	r3, r1, #25
 8002698:	d016      	beq.n	80026c8 <USBD_StdEPReq+0xae>
 800269a:	f000 fc65 	bl	8002f68 <USBD_LL_StallEP>
 800269e:	2180      	movs	r1, #128	; 0x80
 80026a0:	4620      	mov	r0, r4
 80026a2:	f000 fc61 	bl	8002f68 <USBD_LL_StallEP>
 80026a6:	e7da      	b.n	800265e <USBD_StdEPReq+0x44>
 80026a8:	f890 329c 	ldrb.w	r3, [r0, #668]	; 0x29c
 80026ac:	2b02      	cmp	r3, #2
 80026ae:	d00d      	beq.n	80026cc <USBD_StdEPReq+0xb2>
 80026b0:	2b03      	cmp	r3, #3
 80026b2:	d1cb      	bne.n	800264c <USBD_StdEPReq+0x32>
 80026b4:	2314      	movs	r3, #20
 80026b6:	f012 0f80 	tst.w	r2, #128	; 0x80
 80026ba:	f001 020f 	and.w	r2, r1, #15
 80026be:	fb03 0202 	mla	r2, r3, r2, r0
 80026c2:	d014      	beq.n	80026ee <USBD_StdEPReq+0xd4>
 80026c4:	6992      	ldr	r2, [r2, #24]
 80026c6:	b9ea      	cbnz	r2, 8002704 <USBD_StdEPReq+0xea>
 80026c8:	4620      	mov	r0, r4
 80026ca:	e7bf      	b.n	800264c <USBD_StdEPReq+0x32>
 80026cc:	0649      	lsls	r1, r1, #25
 80026ce:	d1fb      	bne.n	80026c8 <USBD_StdEPReq+0xae>
 80026d0:	0613      	lsls	r3, r2, #24
 80026d2:	f04f 0300 	mov.w	r3, #0
 80026d6:	f04f 0202 	mov.w	r2, #2
 80026da:	bf4c      	ite	mi
 80026dc:	f100 0114 	addmi.w	r1, r0, #20
 80026e0:	f500 71aa 	addpl.w	r1, r0, #340	; 0x154
 80026e4:	600b      	str	r3, [r1, #0]
 80026e6:	4620      	mov	r0, r4
 80026e8:	f000 f85b 	bl	80027a2 <USBD_CtlSendData>
 80026ec:	e7b7      	b.n	800265e <USBD_StdEPReq+0x44>
 80026ee:	f8d2 2158 	ldr.w	r2, [r2, #344]	; 0x158
 80026f2:	2a00      	cmp	r2, #0
 80026f4:	d0e8      	beq.n	80026c8 <USBD_StdEPReq+0xae>
 80026f6:	f001 057f 	and.w	r5, r1, #127	; 0x7f
 80026fa:	fb03 0505 	mla	r5, r3, r5, r0
 80026fe:	f505 75aa 	add.w	r5, r5, #340	; 0x154
 8002702:	e004      	b.n	800270e <USBD_StdEPReq+0xf4>
 8002704:	f001 057f 	and.w	r5, r1, #127	; 0x7f
 8002708:	fb05 3503 	mla	r5, r5, r3, r3
 800270c:	4405      	add	r5, r0
 800270e:	f011 037f 	ands.w	r3, r1, #127	; 0x7f
 8002712:	d103      	bne.n	800271c <USBD_StdEPReq+0x102>
 8002714:	602b      	str	r3, [r5, #0]
 8002716:	2202      	movs	r2, #2
 8002718:	4629      	mov	r1, r5
 800271a:	e7e4      	b.n	80026e6 <USBD_StdEPReq+0xcc>
 800271c:	4620      	mov	r0, r4
 800271e:	f000 fc3f 	bl	8002fa0 <USBD_LL_IsStallEP>
 8002722:	b108      	cbz	r0, 8002728 <USBD_StdEPReq+0x10e>
 8002724:	2301      	movs	r3, #1
 8002726:	e7f5      	b.n	8002714 <USBD_StdEPReq+0xfa>
 8002728:	6028      	str	r0, [r5, #0]
 800272a:	e7f4      	b.n	8002716 <USBD_StdEPReq+0xfc>

0800272c <USBD_ParseSetupRequest>:
 800272c:	780b      	ldrb	r3, [r1, #0]
 800272e:	7003      	strb	r3, [r0, #0]
 8002730:	784b      	ldrb	r3, [r1, #1]
 8002732:	7043      	strb	r3, [r0, #1]
 8002734:	78ca      	ldrb	r2, [r1, #3]
 8002736:	788b      	ldrb	r3, [r1, #2]
 8002738:	eb03 2302 	add.w	r3, r3, r2, lsl #8
 800273c:	8043      	strh	r3, [r0, #2]
 800273e:	794a      	ldrb	r2, [r1, #5]
 8002740:	790b      	ldrb	r3, [r1, #4]
 8002742:	eb03 2302 	add.w	r3, r3, r2, lsl #8
 8002746:	8083      	strh	r3, [r0, #4]
 8002748:	79ca      	ldrb	r2, [r1, #7]
 800274a:	798b      	ldrb	r3, [r1, #6]
 800274c:	eb03 2302 	add.w	r3, r3, r2, lsl #8
 8002750:	80c3      	strh	r3, [r0, #6]
 8002752:	4770      	bx	lr

08002754 <USBD_CtlError>:
 8002754:	b510      	push	{r4, lr}
 8002756:	4604      	mov	r4, r0
 8002758:	2180      	movs	r1, #128	; 0x80
 800275a:	f000 fc05 	bl	8002f68 <USBD_LL_StallEP>
 800275e:	4620      	mov	r0, r4
 8002760:	e8bd 4010 	ldmia.w	sp!, {r4, lr}
 8002764:	2100      	movs	r1, #0
 8002766:	f000 bbff 	b.w	8002f68 <USBD_LL_StallEP>

0800276a <USBD_GetString>:
 800276a:	b530      	push	{r4, r5, lr}
 800276c:	b188      	cbz	r0, 8002792 <USBD_GetString+0x28>
 800276e:	4605      	mov	r5, r0
 8002770:	1a2b      	subs	r3, r5, r0
 8002772:	f815 4b01 	ldrb.w	r4, [r5], #1
 8002776:	b2db      	uxtb	r3, r3
 8002778:	2c00      	cmp	r4, #0
 800277a:	d1f9      	bne.n	8002770 <USBD_GetString+0x6>
 800277c:	3301      	adds	r3, #1
 800277e:	005b      	lsls	r3, r3, #1
 8002780:	8013      	strh	r3, [r2, #0]
 8002782:	700b      	strb	r3, [r1, #0]
 8002784:	2303      	movs	r3, #3
 8002786:	704b      	strb	r3, [r1, #1]
 8002788:	2302      	movs	r3, #2
 800278a:	3801      	subs	r0, #1
 800278c:	f810 5f01 	ldrb.w	r5, [r0, #1]!
 8002790:	b905      	cbnz	r5, 8002794 <USBD_GetString+0x2a>
 8002792:	bd30      	pop	{r4, r5, pc}
 8002794:	1c5a      	adds	r2, r3, #1
 8002796:	54cd      	strb	r5, [r1, r3]
 8002798:	b2d2      	uxtb	r2, r2
 800279a:	3302      	adds	r3, #2
 800279c:	b2db      	uxtb	r3, r3
 800279e:	548c      	strb	r4, [r1, r2]
 80027a0:	e7f4      	b.n	800278c <USBD_GetString+0x22>

080027a2 <USBD_CtlSendData>:
 80027a2:	4613      	mov	r3, r2
 80027a4:	2202      	movs	r2, #2
 80027a6:	b510      	push	{r4, lr}
 80027a8:	f8c0 2294 	str.w	r2, [r0, #660]	; 0x294
 80027ac:	61c3      	str	r3, [r0, #28]
 80027ae:	460a      	mov	r2, r1
 80027b0:	6203      	str	r3, [r0, #32]
 80027b2:	2100      	movs	r1, #0
 80027b4:	f000 fc12 	bl	8002fdc <USBD_LL_Transmit>
 80027b8:	2000      	movs	r0, #0
 80027ba:	bd10      	pop	{r4, pc}

080027bc <USBD_CtlContinueSendData>:
 80027bc:	b508      	push	{r3, lr}
 80027be:	4613      	mov	r3, r2
 80027c0:	460a      	mov	r2, r1
 80027c2:	2100      	movs	r1, #0
 80027c4:	f000 fc0a 	bl	8002fdc <USBD_LL_Transmit>
 80027c8:	2000      	movs	r0, #0
 80027ca:	bd08      	pop	{r3, pc}

080027cc <USBD_CtlPrepareRx>:
 80027cc:	4613      	mov	r3, r2
 80027ce:	2203      	movs	r2, #3
 80027d0:	b510      	push	{r4, lr}
 80027d2:	f8c0 2294 	str.w	r2, [r0, #660]	; 0x294
 80027d6:	f8c0 315c 	str.w	r3, [r0, #348]	; 0x15c
 80027da:	460a      	mov	r2, r1
 80027dc:	f8c0 3160 	str.w	r3, [r0, #352]	; 0x160
 80027e0:	2100      	movs	r1, #0
 80027e2:	f000 fc09 	bl	8002ff8 <USBD_LL_PrepareReceive>
 80027e6:	2000      	movs	r0, #0
 80027e8:	bd10      	pop	{r4, pc}

080027ea <USBD_CtlContinueRx>:
 80027ea:	b508      	push	{r3, lr}
 80027ec:	4613      	mov	r3, r2
 80027ee:	460a      	mov	r2, r1
 80027f0:	2100      	movs	r1, #0
 80027f2:	f000 fc01 	bl	8002ff8 <USBD_LL_PrepareReceive>
 80027f6:	2000      	movs	r0, #0
 80027f8:	bd08      	pop	{r3, pc}

080027fa <USBD_CtlSendStatus>:
 80027fa:	b508      	push	{r3, lr}
 80027fc:	2304      	movs	r3, #4
 80027fe:	f8c0 3294 	str.w	r3, [r0, #660]	; 0x294
 8002802:	2300      	movs	r3, #0
 8002804:	461a      	mov	r2, r3
 8002806:	4619      	mov	r1, r3
 8002808:	f000 fbe8 	bl	8002fdc <USBD_LL_Transmit>
 800280c:	2000      	movs	r0, #0
 800280e:	bd08      	pop	{r3, pc}

08002810 <USBD_CtlReceiveStatus>:
 8002810:	b508      	push	{r3, lr}
 8002812:	2305      	movs	r3, #5
 8002814:	f8c0 3294 	str.w	r3, [r0, #660]	; 0x294
 8002818:	2300      	movs	r3, #0
 800281a:	461a      	mov	r2, r3
 800281c:	4619      	mov	r1, r3
 800281e:	f000 fbeb 	bl	8002ff8 <USBD_LL_PrepareReceive>
 8002822:	2000      	movs	r0, #0
 8002824:	bd08      	pop	{r3, pc}

08002826 <SystemClock_Config>:
 8002826:	2228      	movs	r2, #40	; 0x28
 8002828:	b570      	push	{r4, r5, r6, lr}
 800282a:	b094      	sub	sp, #80	; 0x50
 800282c:	eb0d 0002 	add.w	r0, sp, r2
 8002830:	2100      	movs	r1, #0
 8002832:	f000 fcc1 	bl	80031b8 <memset>
 8002836:	2214      	movs	r2, #20
 8002838:	2510      	movs	r5, #16
 800283a:	eb0d 0002 	add.w	r0, sp, r2
 800283e:	2100      	movs	r1, #0
 8002840:	f000 fcba 	bl	80031b8 <memset>
 8002844:	462a      	mov	r2, r5
 8002846:	2100      	movs	r1, #0
 8002848:	a801      	add	r0, sp, #4
 800284a:	f000 fcb5 	bl	80031b8 <memset>
 800284e:	f44f 3380 	mov.w	r3, #65536	; 0x10000
 8002852:	2401      	movs	r4, #1
 8002854:	930b      	str	r3, [sp, #44]	; 0x2c
 8002856:	2602      	movs	r6, #2
 8002858:	9312      	str	r3, [sp, #72]	; 0x48
 800285a:	f44f 1380 	mov.w	r3, #1048576	; 0x100000
 800285e:	a80a      	add	r0, sp, #40	; 0x28
 8002860:	9313      	str	r3, [sp, #76]	; 0x4c
 8002862:	940a      	str	r4, [sp, #40]	; 0x28
 8002864:	940e      	str	r4, [sp, #56]	; 0x38
 8002866:	9611      	str	r6, [sp, #68]	; 0x44
 8002868:	f7fe f9f2 	bl	8000c50 <HAL_RCC_OscConfig>
 800286c:	230f      	movs	r3, #15
 800286e:	f44f 62a0 	mov.w	r2, #1280	; 0x500
 8002872:	9305      	str	r3, [sp, #20]
 8002874:	2300      	movs	r3, #0
 8002876:	4621      	mov	r1, r4
 8002878:	a805      	add	r0, sp, #20
 800287a:	9307      	str	r3, [sp, #28]
 800287c:	9208      	str	r2, [sp, #32]
 800287e:	9309      	str	r3, [sp, #36]	; 0x24
 8002880:	9606      	str	r6, [sp, #24]
 8002882:	f7fe fbbf 	bl	8001004 <HAL_RCC_ClockConfig>
 8002886:	f44f 0380 	mov.w	r3, #4194304	; 0x400000
 800288a:	a801      	add	r0, sp, #4
 800288c:	9501      	str	r5, [sp, #4]
 800288e:	9304      	str	r3, [sp, #16]
 8002890:	f7fe fc56 	bl	8001140 <HAL_RCCEx_PeriphCLKConfig>
 8002894:	b014      	add	sp, #80	; 0x50
 8002896:	bd70      	pop	{r4, r5, r6, pc}

08002898 <main>:
 8002898:	b580      	push	{r7, lr}
 800289a:	b08a      	sub	sp, #40	; 0x28
 800289c:	f7fd fc7a 	bl	8000194 <HAL_Init>
 80028a0:	f7ff ffc1 	bl	8002826 <SystemClock_Config>
 80028a4:	2210      	movs	r2, #16
 80028a6:	2100      	movs	r1, #0
 80028a8:	a806      	add	r0, sp, #24
 80028aa:	f000 fc85 	bl	80031b8 <memset>
 80028ae:	4b4d      	ldr	r3, [pc, #308]	; (80029e4 <main+0x14c>)
 80028b0:	f24f 01f0 	movw	r1, #61680	; 0xf0f0
 80028b4:	699a      	ldr	r2, [r3, #24]
 80028b6:	484c      	ldr	r0, [pc, #304]	; (80029e8 <main+0x150>)
 80028b8:	f042 0220 	orr.w	r2, r2, #32
 80028bc:	619a      	str	r2, [r3, #24]
 80028be:	699a      	ldr	r2, [r3, #24]
 80028c0:	2400      	movs	r4, #0
 80028c2:	f002 0220 	and.w	r2, r2, #32
 80028c6:	9200      	str	r2, [sp, #0]
 80028c8:	9a00      	ldr	r2, [sp, #0]
 80028ca:	699a      	ldr	r2, [r3, #24]
 80028cc:	2501      	movs	r5, #1
 80028ce:	f042 0208 	orr.w	r2, r2, #8
 80028d2:	619a      	str	r2, [r3, #24]
 80028d4:	699a      	ldr	r2, [r3, #24]
 80028d6:	2702      	movs	r7, #2
 80028d8:	f002 0208 	and.w	r2, r2, #8
 80028dc:	9201      	str	r2, [sp, #4]
 80028de:	9a01      	ldr	r2, [sp, #4]
 80028e0:	699a      	ldr	r2, [r3, #24]
 80028e2:	4e42      	ldr	r6, [pc, #264]	; (80029ec <main+0x154>)
 80028e4:	f042 0210 	orr.w	r2, r2, #16
 80028e8:	619a      	str	r2, [r3, #24]
 80028ea:	699a      	ldr	r2, [r3, #24]
 80028ec:	f002 0210 	and.w	r2, r2, #16
 80028f0:	9202      	str	r2, [sp, #8]
 80028f2:	9a02      	ldr	r2, [sp, #8]
 80028f4:	699a      	ldr	r2, [r3, #24]
 80028f6:	f042 0204 	orr.w	r2, r2, #4
 80028fa:	619a      	str	r2, [r3, #24]
 80028fc:	699b      	ldr	r3, [r3, #24]
 80028fe:	2200      	movs	r2, #0
 8002900:	f003 0304 	and.w	r3, r3, #4
 8002904:	9303      	str	r3, [sp, #12]
 8002906:	9b03      	ldr	r3, [sp, #12]
 8002908:	f7fd fdb4 	bl	8000474 <HAL_GPIO_WritePin>
 800290c:	2200      	movs	r2, #0
 800290e:	f44f 4100 	mov.w	r1, #32768	; 0x8000
 8002912:	4837      	ldr	r0, [pc, #220]	; (80029f0 <main+0x158>)
 8002914:	f7fd fdae 	bl	8000474 <HAL_GPIO_WritePin>
 8002918:	f24f 03f0 	movw	r3, #61680	; 0xf0f0
 800291c:	a906      	add	r1, sp, #24
 800291e:	4832      	ldr	r0, [pc, #200]	; (80029e8 <main+0x150>)
 8002920:	9306      	str	r3, [sp, #24]
 8002922:	9507      	str	r5, [sp, #28]
 8002924:	9408      	str	r4, [sp, #32]
 8002926:	9709      	str	r7, [sp, #36]	; 0x24
 8002928:	f7fd fcc2 	bl	80002b0 <HAL_GPIO_Init>
 800292c:	2340      	movs	r3, #64	; 0x40
 800292e:	a906      	add	r1, sp, #24
 8002930:	4830      	ldr	r0, [pc, #192]	; (80029f4 <main+0x15c>)
 8002932:	9306      	str	r3, [sp, #24]
 8002934:	9607      	str	r6, [sp, #28]
 8002936:	9408      	str	r4, [sp, #32]
 8002938:	f7fd fcba 	bl	80002b0 <HAL_GPIO_Init>
 800293c:	f44f 53fc 	mov.w	r3, #8064	; 0x1f80
 8002940:	a906      	add	r1, sp, #24
 8002942:	482c      	ldr	r0, [pc, #176]	; (80029f4 <main+0x15c>)
 8002944:	9306      	str	r3, [sp, #24]
 8002946:	9407      	str	r4, [sp, #28]
 8002948:	9408      	str	r4, [sp, #32]
 800294a:	f7fd fcb1 	bl	80002b0 <HAL_GPIO_Init>
 800294e:	f44f 4300 	mov.w	r3, #32768	; 0x8000
 8002952:	a906      	add	r1, sp, #24
 8002954:	4826      	ldr	r0, [pc, #152]	; (80029f0 <main+0x158>)
 8002956:	9306      	str	r3, [sp, #24]
 8002958:	9507      	str	r5, [sp, #28]
 800295a:	9408      	str	r4, [sp, #32]
 800295c:	9709      	str	r7, [sp, #36]	; 0x24
 800295e:	f7fd fca7 	bl	80002b0 <HAL_GPIO_Init>
 8002962:	2308      	movs	r3, #8
 8002964:	a906      	add	r1, sp, #24
 8002966:	4820      	ldr	r0, [pc, #128]	; (80029e8 <main+0x150>)
 8002968:	9306      	str	r3, [sp, #24]
 800296a:	9607      	str	r6, [sp, #28]
 800296c:	9408      	str	r4, [sp, #32]
 800296e:	f7fd fc9f 	bl	80002b0 <HAL_GPIO_Init>
 8002972:	4629      	mov	r1, r5
 8002974:	4622      	mov	r2, r4
 8002976:	2009      	movs	r0, #9
 8002978:	f7fd fc42 	bl	8000200 <HAL_NVIC_SetPriority>
 800297c:	2009      	movs	r0, #9
 800297e:	f7fd fc73 	bl	8000268 <HAL_NVIC_EnableIRQ>
 8002982:	4629      	mov	r1, r5
 8002984:	4622      	mov	r2, r4
 8002986:	2017      	movs	r0, #23
 8002988:	f7fd fc3a 	bl	8000200 <HAL_NVIC_SetPriority>
 800298c:	2017      	movs	r0, #23
 800298e:	f7fd fc6b 	bl	8000268 <HAL_NVIC_EnableIRQ>
 8002992:	f000 f9d1 	bl	8002d38 <MX_USB_DEVICE_Init>
 8002996:	2210      	movs	r2, #16
 8002998:	4621      	mov	r1, r4
 800299a:	a806      	add	r0, sp, #24
 800299c:	f000 fc0c 	bl	80031b8 <memset>
 80029a0:	f04f 4380 	mov.w	r3, #1073741824	; 0x40000000
 80029a4:	4d14      	ldr	r5, [pc, #80]	; (80029f8 <main+0x160>)
 80029a6:	9404      	str	r4, [sp, #16]
 80029a8:	e885 0018 	stmia.w	r5, {r3, r4}
 80029ac:	f645 53c0 	movw	r3, #24000	; 0x5dc0
 80029b0:	4628      	mov	r0, r5
 80029b2:	60eb      	str	r3, [r5, #12]
 80029b4:	9405      	str	r4, [sp, #20]
 80029b6:	60ac      	str	r4, [r5, #8]
 80029b8:	612c      	str	r4, [r5, #16]
 80029ba:	61ac      	str	r4, [r5, #24]
 80029bc:	f7fe fd28 	bl	8001410 <HAL_TIM_Base_Init>
 80029c0:	f44f 5380 	mov.w	r3, #4096	; 0x1000
 80029c4:	a906      	add	r1, sp, #24
 80029c6:	4628      	mov	r0, r5
 80029c8:	9306      	str	r3, [sp, #24]
 80029ca:	f7fe fd45 	bl	8001458 <HAL_TIM_ConfigClockSource>
 80029ce:	a904      	add	r1, sp, #16
 80029d0:	4628      	mov	r0, r5
 80029d2:	9404      	str	r4, [sp, #16]
 80029d4:	9405      	str	r4, [sp, #20]
 80029d6:	f7fe fdd3 	bl	8001580 <HAL_TIMEx_MasterConfigSynchronization>
 80029da:	4628      	mov	r0, r5
 80029dc:	f7fe fc28 	bl	8001230 <HAL_TIM_Base_Start_IT>
 80029e0:	e7fe      	b.n	80029e0 <main+0x148>
 80029e2:	bf00      	nop
 80029e4:	40021000 	.word	0x40021000
 80029e8:	40010c00 	.word	0x40010c00
 80029ec:	10110000 	.word	0x10110000
 80029f0:	40010800 	.word	0x40010800
 80029f4:	40011000 	.word	0x40011000
 80029f8:	20000444 	.word	0x20000444

080029fc <Error_Handler>:
 80029fc:	4770      	bx	lr
	...

08002a00 <HAL_MspInit>:
 8002a00:	4b0e      	ldr	r3, [pc, #56]	; (8002a3c <HAL_MspInit+0x3c>)
 8002a02:	b082      	sub	sp, #8
 8002a04:	699a      	ldr	r2, [r3, #24]
 8002a06:	f042 0201 	orr.w	r2, r2, #1
 8002a0a:	619a      	str	r2, [r3, #24]
 8002a0c:	699a      	ldr	r2, [r3, #24]
 8002a0e:	f002 0201 	and.w	r2, r2, #1
 8002a12:	9200      	str	r2, [sp, #0]
 8002a14:	9a00      	ldr	r2, [sp, #0]
 8002a16:	69da      	ldr	r2, [r3, #28]
 8002a18:	f042 5280 	orr.w	r2, r2, #268435456	; 0x10000000
 8002a1c:	61da      	str	r2, [r3, #28]
 8002a1e:	69db      	ldr	r3, [r3, #28]
 8002a20:	4a07      	ldr	r2, [pc, #28]	; (8002a40 <HAL_MspInit+0x40>)
 8002a22:	f003 5380 	and.w	r3, r3, #268435456	; 0x10000000
 8002a26:	9301      	str	r3, [sp, #4]
 8002a28:	9b01      	ldr	r3, [sp, #4]
 8002a2a:	6853      	ldr	r3, [r2, #4]
 8002a2c:	f023 63e0 	bic.w	r3, r3, #117440512	; 0x7000000
 8002a30:	f043 7300 	orr.w	r3, r3, #33554432	; 0x2000000
 8002a34:	6053      	str	r3, [r2, #4]
 8002a36:	b002      	add	sp, #8
 8002a38:	4770      	bx	lr
 8002a3a:	bf00      	nop
 8002a3c:	40021000 	.word	0x40021000
 8002a40:	40010000 	.word	0x40010000

08002a44 <HAL_TIM_Base_MspInit>:
 8002a44:	6803      	ldr	r3, [r0, #0]
 8002a46:	b507      	push	{r0, r1, r2, lr}
 8002a48:	f1b3 4f80 	cmp.w	r3, #1073741824	; 0x40000000
 8002a4c:	d112      	bne.n	8002a74 <HAL_TIM_Base_MspInit+0x30>
 8002a4e:	f503 3304 	add.w	r3, r3, #135168	; 0x21000
 8002a52:	69da      	ldr	r2, [r3, #28]
 8002a54:	201c      	movs	r0, #28
 8002a56:	f042 0201 	orr.w	r2, r2, #1
 8002a5a:	61da      	str	r2, [r3, #28]
 8002a5c:	2200      	movs	r2, #0
 8002a5e:	69db      	ldr	r3, [r3, #28]
 8002a60:	4611      	mov	r1, r2
 8002a62:	f003 0301 	and.w	r3, r3, #1
 8002a66:	9301      	str	r3, [sp, #4]
 8002a68:	9b01      	ldr	r3, [sp, #4]
 8002a6a:	f7fd fbc9 	bl	8000200 <HAL_NVIC_SetPriority>
 8002a6e:	201c      	movs	r0, #28
 8002a70:	f7fd fbfa 	bl	8000268 <HAL_NVIC_EnableIRQ>
 8002a74:	b003      	add	sp, #12
 8002a76:	f85d fb04 	ldr.w	pc, [sp], #4
	...

08002a7c <HAL_GPIO_EXTI_Callback>:
 8002a7c:	2840      	cmp	r0, #64	; 0x40
 8002a7e:	d10d      	bne.n	8002a9c <HAL_GPIO_EXTI_Callback+0x20>
 8002a80:	4b07      	ldr	r3, [pc, #28]	; (8002aa0 <HAL_GPIO_EXTI_Callback+0x24>)
 8002a82:	681a      	ldr	r2, [r3, #0]
 8002a84:	2a32      	cmp	r2, #50	; 0x32
 8002a86:	dd09      	ble.n	8002a9c <HAL_GPIO_EXTI_Callback+0x20>
 8002a88:	2200      	movs	r2, #0
 8002a8a:	4906      	ldr	r1, [pc, #24]	; (8002aa4 <HAL_GPIO_EXTI_Callback+0x28>)
 8002a8c:	601a      	str	r2, [r3, #0]
 8002a8e:	680b      	ldr	r3, [r1, #0]
 8002a90:	fab3 f383 	clz	r3, r3
 8002a94:	095b      	lsrs	r3, r3, #5
 8002a96:	600b      	str	r3, [r1, #0]
 8002a98:	4b03      	ldr	r3, [pc, #12]	; (8002aa8 <HAL_GPIO_EXTI_Callback+0x2c>)
 8002a9a:	601a      	str	r2, [r3, #0]
 8002a9c:	4770      	bx	lr
 8002a9e:	bf00      	nop
 8002aa0:	20000208 	.word	0x20000208
 8002aa4:	20000200 	.word	0x20000200
 8002aa8:	20000210 	.word	0x20000210

08002aac <NMI_Handler>:
 8002aac:	4770      	bx	lr

08002aae <HardFault_Handler>:
 8002aae:	e7fe      	b.n	8002aae <HardFault_Handler>

08002ab0 <MemManage_Handler>:
 8002ab0:	e7fe      	b.n	8002ab0 <MemManage_Handler>

08002ab2 <BusFault_Handler>:
 8002ab2:	e7fe      	b.n	8002ab2 <BusFault_Handler>

08002ab4 <UsageFault_Handler>:
 8002ab4:	e7fe      	b.n	8002ab4 <UsageFault_Handler>

08002ab6 <SVC_Handler>:
 8002ab6:	4770      	bx	lr

08002ab8 <DebugMon_Handler>:
 8002ab8:	4770      	bx	lr

08002aba <PendSV_Handler>:
 8002aba:	4770      	bx	lr

08002abc <SysTick_Handler>:
 8002abc:	f7fd bb7c 	b.w	80001b8 <HAL_IncTick>

08002ac0 <EXTI3_IRQHandler>:
 8002ac0:	b510      	push	{r4, lr}
 8002ac2:	2008      	movs	r0, #8
 8002ac4:	f7fd fce2 	bl	800048c <HAL_GPIO_EXTI_IRQHandler>
 8002ac8:	2300      	movs	r3, #0
 8002aca:	4a19      	ldr	r2, [pc, #100]	; (8002b30 <EXTI3_IRQHandler+0x70>)
 8002acc:	4c19      	ldr	r4, [pc, #100]	; (8002b34 <EXTI3_IRQHandler+0x74>)
 8002ace:	6013      	str	r3, [r2, #0]
 8002ad0:	4a19      	ldr	r2, [pc, #100]	; (8002b38 <EXTI3_IRQHandler+0x78>)
 8002ad2:	4620      	mov	r0, r4
 8002ad4:	6013      	str	r3, [r2, #0]
 8002ad6:	2110      	movs	r1, #16
 8002ad8:	2201      	movs	r2, #1
 8002ada:	f7fd fccb 	bl	8000474 <HAL_GPIO_WritePin>
 8002ade:	4620      	mov	r0, r4
 8002ae0:	2201      	movs	r2, #1
 8002ae2:	f44f 5180 	mov.w	r1, #4096	; 0x1000
 8002ae6:	f7fd fcc5 	bl	8000474 <HAL_GPIO_WritePin>
 8002aea:	4620      	mov	r0, r4
 8002aec:	2201      	movs	r2, #1
 8002aee:	f44f 4180 	mov.w	r1, #16384	; 0x4000
 8002af2:	f7fd fcbf 	bl	8000474 <HAL_GPIO_WritePin>
 8002af6:	4620      	mov	r0, r4
 8002af8:	2201      	movs	r2, #1
 8002afa:	f44f 4100 	mov.w	r1, #32768	; 0x8000
 8002afe:	f7fd fcb9 	bl	8000474 <HAL_GPIO_WritePin>
 8002b02:	4620      	mov	r0, r4
 8002b04:	2201      	movs	r2, #1
 8002b06:	f44f 5100 	mov.w	r1, #8192	; 0x2000
 8002b0a:	f7fd fcb3 	bl	8000474 <HAL_GPIO_WritePin>
 8002b0e:	4620      	mov	r0, r4
 8002b10:	2201      	movs	r2, #1
 8002b12:	2120      	movs	r1, #32
 8002b14:	f7fd fcae 	bl	8000474 <HAL_GPIO_WritePin>
 8002b18:	4620      	mov	r0, r4
 8002b1a:	2201      	movs	r2, #1
 8002b1c:	2140      	movs	r1, #64	; 0x40
 8002b1e:	f7fd fca9 	bl	8000474 <HAL_GPIO_WritePin>
 8002b22:	4620      	mov	r0, r4
 8002b24:	e8bd 4010 	ldmia.w	sp!, {r4, lr}
 8002b28:	2201      	movs	r2, #1
 8002b2a:	2180      	movs	r1, #128	; 0x80
 8002b2c:	f7fd bca2 	b.w	8000474 <HAL_GPIO_WritePin>
 8002b30:	2000020c 	.word	0x2000020c
 8002b34:	40010c00 	.word	0x40010c00
 8002b38:	20000210 	.word	0x20000210

08002b3c <USB_LP_CAN1_RX0_IRQHandler>:
 8002b3c:	4801      	ldr	r0, [pc, #4]	; (8002b44 <USB_LP_CAN1_RX0_IRQHandler+0x8>)
 8002b3e:	f7fd bde3 	b.w	8000708 <HAL_PCD_IRQHandler>
 8002b42:	bf00      	nop
 8002b44:	20000f18 	.word	0x20000f18

08002b48 <EXTI9_5_IRQHandler>:
 8002b48:	2040      	movs	r0, #64	; 0x40
 8002b4a:	f7fd bc9f 	b.w	800048c <HAL_GPIO_EXTI_IRQHandler>
	...

08002b50 <TIM2_IRQHandler>:
 8002b50:	b538      	push	{r3, r4, r5, lr}
 8002b52:	483d      	ldr	r0, [pc, #244]	; (8002c48 <TIM2_IRQHandler+0xf8>)
 8002b54:	f7fe fb81 	bl	800125a <HAL_TIM_IRQHandler>
 8002b58:	4a3c      	ldr	r2, [pc, #240]	; (8002c4c <TIM2_IRQHandler+0xfc>)
 8002b5a:	6813      	ldr	r3, [r2, #0]
 8002b5c:	f5b3 7ffa 	cmp.w	r3, #500	; 0x1f4
 8002b60:	dd6c      	ble.n	8002c3c <TIM2_IRQHandler+0xec>
 8002b62:	2300      	movs	r3, #0
 8002b64:	f44f 4100 	mov.w	r1, #32768	; 0x8000
 8002b68:	4839      	ldr	r0, [pc, #228]	; (8002c50 <TIM2_IRQHandler+0x100>)
 8002b6a:	6013      	str	r3, [r2, #0]
 8002b6c:	f7fd fc87 	bl	800047e <HAL_GPIO_TogglePin>
 8002b70:	4a38      	ldr	r2, [pc, #224]	; (8002c54 <TIM2_IRQHandler+0x104>)
 8002b72:	4939      	ldr	r1, [pc, #228]	; (8002c58 <TIM2_IRQHandler+0x108>)
 8002b74:	6813      	ldr	r3, [r2, #0]
 8002b76:	2b32      	cmp	r3, #50	; 0x32
 8002b78:	bfdc      	itt	le
 8002b7a:	3301      	addle	r3, #1
 8002b7c:	6013      	strle	r3, [r2, #0]
 8002b7e:	680b      	ldr	r3, [r1, #0]
 8002b80:	4a36      	ldr	r2, [pc, #216]	; (8002c5c <TIM2_IRQHandler+0x10c>)
 8002b82:	f5b3 7f7a 	cmp.w	r3, #1000	; 0x3e8
 8002b86:	6810      	ldr	r0, [r2, #0]
 8002b88:	bfb4      	ite	lt
 8002b8a:	2200      	movlt	r2, #0
 8002b8c:	2201      	movge	r2, #1
 8002b8e:	4382      	bics	r2, r0
 8002b90:	d057      	beq.n	8002c42 <TIM2_IRQHandler+0xf2>
 8002b92:	4c33      	ldr	r4, [pc, #204]	; (8002c60 <TIM2_IRQHandler+0x110>)
 8002b94:	2500      	movs	r5, #0
 8002b96:	6822      	ldr	r2, [r4, #0]
 8002b98:	600d      	str	r5, [r1, #0]
 8002b9a:	3201      	adds	r2, #1
 8002b9c:	6022      	str	r2, [r4, #0]
 8002b9e:	43d2      	mvns	r2, r2
 8002ba0:	f44f 5180 	mov.w	r1, #4096	; 0x1000
 8002ba4:	f002 0201 	and.w	r2, r2, #1
 8002ba8:	482e      	ldr	r0, [pc, #184]	; (8002c64 <TIM2_IRQHandler+0x114>)
 8002baa:	f7fd fc63 	bl	8000474 <HAL_GPIO_WritePin>
 8002bae:	6822      	ldr	r2, [r4, #0]
 8002bb0:	f44f 4180 	mov.w	r1, #16384	; 0x4000
 8002bb4:	f082 0202 	eor.w	r2, r2, #2
 8002bb8:	f3c2 0240 	ubfx	r2, r2, #1, #1
 8002bbc:	4829      	ldr	r0, [pc, #164]	; (8002c64 <TIM2_IRQHandler+0x114>)
 8002bbe:	f7fd fc59 	bl	8000474 <HAL_GPIO_WritePin>
 8002bc2:	6822      	ldr	r2, [r4, #0]
 8002bc4:	f44f 4100 	mov.w	r1, #32768	; 0x8000
 8002bc8:	f082 0204 	eor.w	r2, r2, #4
 8002bcc:	f3c2 0280 	ubfx	r2, r2, #2, #1
 8002bd0:	4824      	ldr	r0, [pc, #144]	; (8002c64 <TIM2_IRQHandler+0x114>)
 8002bd2:	f7fd fc4f 	bl	8000474 <HAL_GPIO_WritePin>
 8002bd6:	6822      	ldr	r2, [r4, #0]
 8002bd8:	f44f 5100 	mov.w	r1, #8192	; 0x2000
 8002bdc:	f082 0208 	eor.w	r2, r2, #8
 8002be0:	f3c2 02c0 	ubfx	r2, r2, #3, #1
 8002be4:	481f      	ldr	r0, [pc, #124]	; (8002c64 <TIM2_IRQHandler+0x114>)
 8002be6:	f7fd fc45 	bl	8000474 <HAL_GPIO_WritePin>
 8002bea:	6822      	ldr	r2, [r4, #0]
 8002bec:	2120      	movs	r1, #32
 8002bee:	f082 0210 	eor.w	r2, r2, #16
 8002bf2:	f3c2 1200 	ubfx	r2, r2, #4, #1
 8002bf6:	481b      	ldr	r0, [pc, #108]	; (8002c64 <TIM2_IRQHandler+0x114>)
 8002bf8:	f7fd fc3c 	bl	8000474 <HAL_GPIO_WritePin>
 8002bfc:	6822      	ldr	r2, [r4, #0]
 8002bfe:	2140      	movs	r1, #64	; 0x40
 8002c00:	f082 0220 	eor.w	r2, r2, #32
 8002c04:	f3c2 1240 	ubfx	r2, r2, #5, #1
 8002c08:	4816      	ldr	r0, [pc, #88]	; (8002c64 <TIM2_IRQHandler+0x114>)
 8002c0a:	f7fd fc33 	bl	8000474 <HAL_GPIO_WritePin>
 8002c0e:	6822      	ldr	r2, [r4, #0]
 8002c10:	2180      	movs	r1, #128	; 0x80
 8002c12:	f082 0240 	eor.w	r2, r2, #64	; 0x40
 8002c16:	f3c2 1280 	ubfx	r2, r2, #6, #1
 8002c1a:	4812      	ldr	r0, [pc, #72]	; (8002c64 <TIM2_IRQHandler+0x114>)
 8002c1c:	f7fd fc2a 	bl	8000474 <HAL_GPIO_WritePin>
 8002c20:	6822      	ldr	r2, [r4, #0]
 8002c22:	2110      	movs	r1, #16
 8002c24:	f082 0280 	eor.w	r2, r2, #128	; 0x80
 8002c28:	f3c2 12c0 	ubfx	r2, r2, #7, #1
 8002c2c:	480d      	ldr	r0, [pc, #52]	; (8002c64 <TIM2_IRQHandler+0x114>)
 8002c2e:	f7fd fc21 	bl	8000474 <HAL_GPIO_WritePin>
 8002c32:	6823      	ldr	r3, [r4, #0]
 8002c34:	2bff      	cmp	r3, #255	; 0xff
 8002c36:	dd06      	ble.n	8002c46 <TIM2_IRQHandler+0xf6>
 8002c38:	6025      	str	r5, [r4, #0]
 8002c3a:	bd38      	pop	{r3, r4, r5, pc}
 8002c3c:	3301      	adds	r3, #1
 8002c3e:	6013      	str	r3, [r2, #0]
 8002c40:	e796      	b.n	8002b70 <TIM2_IRQHandler+0x20>
 8002c42:	3301      	adds	r3, #1
 8002c44:	600b      	str	r3, [r1, #0]
 8002c46:	bd38      	pop	{r3, r4, r5, pc}
 8002c48:	20000444 	.word	0x20000444
 8002c4c:	20000204 	.word	0x20000204
 8002c50:	40010800 	.word	0x40010800
 8002c54:	20000208 	.word	0x20000208
 8002c58:	20000210 	.word	0x20000210
 8002c5c:	20000200 	.word	0x20000200
 8002c60:	2000020c 	.word	0x2000020c
 8002c64:	40010c00 	.word	0x40010c00

08002c68 <_read>:
 8002c68:	b570      	push	{r4, r5, r6, lr}
 8002c6a:	460e      	mov	r6, r1
 8002c6c:	4615      	mov	r5, r2
 8002c6e:	460c      	mov	r4, r1
 8002c70:	1ba3      	subs	r3, r4, r6
 8002c72:	429d      	cmp	r5, r3
 8002c74:	dc01      	bgt.n	8002c7a <_read+0x12>
 8002c76:	4628      	mov	r0, r5
 8002c78:	bd70      	pop	{r4, r5, r6, pc}
 8002c7a:	f3af 8000 	nop.w
 8002c7e:	f804 0b01 	strb.w	r0, [r4], #1
 8002c82:	e7f5      	b.n	8002c70 <_read+0x8>

08002c84 <_write>:
 8002c84:	b570      	push	{r4, r5, r6, lr}
 8002c86:	460e      	mov	r6, r1
 8002c88:	4615      	mov	r5, r2
 8002c8a:	460c      	mov	r4, r1
 8002c8c:	1ba3      	subs	r3, r4, r6
 8002c8e:	429d      	cmp	r5, r3
 8002c90:	dc01      	bgt.n	8002c96 <_write+0x12>
 8002c92:	4628      	mov	r0, r5
 8002c94:	bd70      	pop	{r4, r5, r6, pc}
 8002c96:	f814 0b01 	ldrb.w	r0, [r4], #1
 8002c9a:	f3af 8000 	nop.w
 8002c9e:	e7f5      	b.n	8002c8c <_write+0x8>

08002ca0 <_sbrk>:
 8002ca0:	b508      	push	{r3, lr}
 8002ca2:	4b0a      	ldr	r3, [pc, #40]	; (8002ccc <_sbrk+0x2c>)
 8002ca4:	4602      	mov	r2, r0
 8002ca6:	6819      	ldr	r1, [r3, #0]
 8002ca8:	b909      	cbnz	r1, 8002cae <_sbrk+0xe>
 8002caa:	4909      	ldr	r1, [pc, #36]	; (8002cd0 <_sbrk+0x30>)
 8002cac:	6019      	str	r1, [r3, #0]
 8002cae:	4669      	mov	r1, sp
 8002cb0:	6818      	ldr	r0, [r3, #0]
 8002cb2:	4402      	add	r2, r0
 8002cb4:	428a      	cmp	r2, r1
 8002cb6:	d906      	bls.n	8002cc6 <_sbrk+0x26>
 8002cb8:	f000 fa54 	bl	8003164 <__errno>
 8002cbc:	230c      	movs	r3, #12
 8002cbe:	6003      	str	r3, [r0, #0]
 8002cc0:	f04f 30ff 	mov.w	r0, #4294967295
 8002cc4:	bd08      	pop	{r3, pc}
 8002cc6:	601a      	str	r2, [r3, #0]
 8002cc8:	bd08      	pop	{r3, pc}
 8002cca:	bf00      	nop
 8002ccc:	20000214 	.word	0x20000214
 8002cd0:	20001388 	.word	0x20001388

08002cd4 <_close>:
 8002cd4:	f04f 30ff 	mov.w	r0, #4294967295
 8002cd8:	4770      	bx	lr

08002cda <_fstat>:
 8002cda:	f44f 5300 	mov.w	r3, #8192	; 0x2000
 8002cde:	2000      	movs	r0, #0
 8002ce0:	604b      	str	r3, [r1, #4]
 8002ce2:	4770      	bx	lr

08002ce4 <_isatty>:
 8002ce4:	2001      	movs	r0, #1
 8002ce6:	4770      	bx	lr

08002ce8 <_lseek>:
 8002ce8:	2000      	movs	r0, #0
 8002cea:	4770      	bx	lr

08002cec <SystemInit>:
 8002cec:	4b0f      	ldr	r3, [pc, #60]	; (8002d2c <SystemInit+0x40>)
 8002cee:	681a      	ldr	r2, [r3, #0]
 8002cf0:	f042 0201 	orr.w	r2, r2, #1
 8002cf4:	601a      	str	r2, [r3, #0]
 8002cf6:	6859      	ldr	r1, [r3, #4]
 8002cf8:	4a0d      	ldr	r2, [pc, #52]	; (8002d30 <SystemInit+0x44>)
 8002cfa:	400a      	ands	r2, r1
 8002cfc:	605a      	str	r2, [r3, #4]
 8002cfe:	681a      	ldr	r2, [r3, #0]
 8002d00:	f022 7284 	bic.w	r2, r2, #17301504	; 0x1080000
 8002d04:	f422 3280 	bic.w	r2, r2, #65536	; 0x10000
 8002d08:	601a      	str	r2, [r3, #0]
 8002d0a:	681a      	ldr	r2, [r3, #0]
 8002d0c:	f422 2280 	bic.w	r2, r2, #262144	; 0x40000
 8002d10:	601a      	str	r2, [r3, #0]
 8002d12:	685a      	ldr	r2, [r3, #4]
 8002d14:	f422 02fe 	bic.w	r2, r2, #8323072	; 0x7f0000
 8002d18:	605a      	str	r2, [r3, #4]
 8002d1a:	f44f 021f 	mov.w	r2, #10420224	; 0x9f0000
 8002d1e:	609a      	str	r2, [r3, #8]
 8002d20:	f04f 6200 	mov.w	r2, #134217728	; 0x8000000
 8002d24:	4b03      	ldr	r3, [pc, #12]	; (8002d34 <SystemInit+0x48>)
 8002d26:	609a      	str	r2, [r3, #8]
 8002d28:	4770      	bx	lr
 8002d2a:	bf00      	nop
 8002d2c:	40021000 	.word	0x40021000
 8002d30:	f8ff0000 	.word	0xf8ff0000
 8002d34:	e000ed00 	.word	0xe000ed00

08002d38 <MX_USB_DEVICE_Init>:
 8002d38:	b508      	push	{r3, lr}
 8002d3a:	2200      	movs	r2, #0
 8002d3c:	490e      	ldr	r1, [pc, #56]	; (8002d78 <MX_USB_DEVICE_Init+0x40>)
 8002d3e:	480f      	ldr	r0, [pc, #60]	; (8002d7c <MX_USB_DEVICE_Init+0x44>)
 8002d40:	f7ff f9bc 	bl	80020bc <USBD_Init>
 8002d44:	b108      	cbz	r0, 8002d4a <MX_USB_DEVICE_Init+0x12>
 8002d46:	f7ff fe59 	bl	80029fc <Error_Handler>
 8002d4a:	490d      	ldr	r1, [pc, #52]	; (8002d80 <MX_USB_DEVICE_Init+0x48>)
 8002d4c:	480b      	ldr	r0, [pc, #44]	; (8002d7c <MX_USB_DEVICE_Init+0x44>)
 8002d4e:	f7ff f9d7 	bl	8002100 <USBD_RegisterClass>
 8002d52:	b108      	cbz	r0, 8002d58 <MX_USB_DEVICE_Init+0x20>
 8002d54:	f7ff fe52 	bl	80029fc <Error_Handler>
 8002d58:	490a      	ldr	r1, [pc, #40]	; (8002d84 <MX_USB_DEVICE_Init+0x4c>)
 8002d5a:	4808      	ldr	r0, [pc, #32]	; (8002d7c <MX_USB_DEVICE_Init+0x44>)
 8002d5c:	f7ff f985 	bl	800206a <USBD_CDC_RegisterInterface>
 8002d60:	b108      	cbz	r0, 8002d66 <MX_USB_DEVICE_Init+0x2e>
 8002d62:	f7ff fe4b 	bl	80029fc <Error_Handler>
 8002d66:	4805      	ldr	r0, [pc, #20]	; (8002d7c <MX_USB_DEVICE_Init+0x44>)
 8002d68:	f7ff f9e0 	bl	800212c <USBD_Start>
 8002d6c:	b118      	cbz	r0, 8002d76 <MX_USB_DEVICE_Init+0x3e>
 8002d6e:	e8bd 4008 	ldmia.w	sp!, {r3, lr}
 8002d72:	f7ff be43 	b.w	80029fc <Error_Handler>
 8002d76:	bd08      	pop	{r3, pc}
 8002d78:	2000012c 	.word	0x2000012c
 8002d7c:	20000484 	.word	0x20000484
 8002d80:	20000008 	.word	0x20000008
 8002d84:	2000011c 	.word	0x2000011c

08002d88 <CDC_DeInit_FS>:
 8002d88:	2000      	movs	r0, #0
 8002d8a:	4770      	bx	lr

08002d8c <CDC_Control_FS>:
 8002d8c:	2000      	movs	r0, #0
 8002d8e:	4770      	bx	lr

08002d90 <CDC_Receive_FS>:
 8002d90:	b510      	push	{r4, lr}
 8002d92:	4c05      	ldr	r4, [pc, #20]	; (8002da8 <CDC_Receive_FS+0x18>)
 8002d94:	4601      	mov	r1, r0
 8002d96:	4620      	mov	r0, r4
 8002d98:	f7ff f976 	bl	8002088 <USBD_CDC_SetRxBuffer>
 8002d9c:	4620      	mov	r0, r4
 8002d9e:	f7ff f979 	bl	8002094 <USBD_CDC_ReceivePacket>
 8002da2:	2000      	movs	r0, #0
 8002da4:	bd10      	pop	{r4, pc}
 8002da6:	bf00      	nop
 8002da8:	20000484 	.word	0x20000484

08002dac <CDC_Init_FS>:
 8002dac:	b510      	push	{r4, lr}
 8002dae:	4c06      	ldr	r4, [pc, #24]	; (8002dc8 <CDC_Init_FS+0x1c>)
 8002db0:	2200      	movs	r2, #0
 8002db2:	4906      	ldr	r1, [pc, #24]	; (8002dcc <CDC_Init_FS+0x20>)
 8002db4:	4620      	mov	r0, r4
 8002db6:	f7ff f95f 	bl	8002078 <USBD_CDC_SetTxBuffer>
 8002dba:	4905      	ldr	r1, [pc, #20]	; (8002dd0 <CDC_Init_FS+0x24>)
 8002dbc:	4620      	mov	r0, r4
 8002dbe:	f7ff f963 	bl	8002088 <USBD_CDC_SetRxBuffer>
 8002dc2:	2000      	movs	r0, #0
 8002dc4:	bd10      	pop	{r4, pc}
 8002dc6:	bf00      	nop
 8002dc8:	20000484 	.word	0x20000484
 8002dcc:	20000b30 	.word	0x20000b30
 8002dd0:	20000748 	.word	0x20000748

08002dd4 <HAL_PCD_MspInit>:
 8002dd4:	b507      	push	{r0, r1, r2, lr}
 8002dd6:	4b0d      	ldr	r3, [pc, #52]	; (8002e0c <HAL_PCD_MspInit+0x38>)
 8002dd8:	6802      	ldr	r2, [r0, #0]
 8002dda:	429a      	cmp	r2, r3
 8002ddc:	d112      	bne.n	8002e04 <HAL_PCD_MspInit+0x30>
 8002dde:	f503 33da 	add.w	r3, r3, #111616	; 0x1b400
 8002de2:	69da      	ldr	r2, [r3, #28]
 8002de4:	2014      	movs	r0, #20
 8002de6:	f442 0200 	orr.w	r2, r2, #8388608	; 0x800000
 8002dea:	61da      	str	r2, [r3, #28]
 8002dec:	2200      	movs	r2, #0
 8002dee:	69db      	ldr	r3, [r3, #28]
 8002df0:	4611      	mov	r1, r2
 8002df2:	f403 0300 	and.w	r3, r3, #8388608	; 0x800000
 8002df6:	9301      	str	r3, [sp, #4]
 8002df8:	9b01      	ldr	r3, [sp, #4]
 8002dfa:	f7fd fa01 	bl	8000200 <HAL_NVIC_SetPriority>
 8002dfe:	2014      	movs	r0, #20
 8002e00:	f7fd fa32 	bl	8000268 <HAL_NVIC_EnableIRQ>
 8002e04:	b003      	add	sp, #12
 8002e06:	f85d fb04 	ldr.w	pc, [sp], #4
 8002e0a:	bf00      	nop
 8002e0c:	40005c00 	.word	0x40005c00

08002e10 <HAL_PCD_SetupStageCallback>:
 8002e10:	f500 710c 	add.w	r1, r0, #560	; 0x230
 8002e14:	f8d0 0268 	ldr.w	r0, [r0, #616]	; 0x268
 8002e18:	f7ff b99f 	b.w	800215a <USBD_LL_SetupStage>

08002e1c <HAL_PCD_DataOutStageCallback>:
 8002e1c:	eb00 1341 	add.w	r3, r0, r1, lsl #5
 8002e20:	f8d3 213c 	ldr.w	r2, [r3, #316]	; 0x13c
 8002e24:	f8d0 0268 	ldr.w	r0, [r0, #616]	; 0x268
 8002e28:	f7ff b9c4 	b.w	80021b4 <USBD_LL_DataOutStage>

08002e2c <HAL_PCD_DataInStageCallback>:
 8002e2c:	eb00 1341 	add.w	r3, r0, r1, lsl #5
 8002e30:	6bda      	ldr	r2, [r3, #60]	; 0x3c
 8002e32:	f8d0 0268 	ldr.w	r0, [r0, #616]	; 0x268
 8002e36:	f7ff b9f7 	b.w	8002228 <USBD_LL_DataInStage>

08002e3a <HAL_PCD_SOFCallback>:
 8002e3a:	f8d0 0268 	ldr.w	r0, [r0, #616]	; 0x268
 8002e3e:	f7ff ba8b 	b.w	8002358 <USBD_LL_SOF>

08002e42 <HAL_PCD_ResetCallback>:
 8002e42:	6883      	ldr	r3, [r0, #8]
 8002e44:	b510      	push	{r4, lr}
 8002e46:	2b02      	cmp	r3, #2
 8002e48:	4604      	mov	r4, r0
 8002e4a:	d001      	beq.n	8002e50 <HAL_PCD_ResetCallback+0xe>
 8002e4c:	f7ff fdd6 	bl	80029fc <Error_Handler>
 8002e50:	f8d4 0268 	ldr.w	r0, [r4, #616]	; 0x268
 8002e54:	2101      	movs	r1, #1
 8002e56:	f7ff fa69 	bl	800232c <USBD_LL_SetSpeed>
 8002e5a:	f8d4 0268 	ldr.w	r0, [r4, #616]	; 0x268
 8002e5e:	e8bd 4010 	ldmia.w	sp!, {r4, lr}
 8002e62:	f7ff ba3c 	b.w	80022de <USBD_LL_Reset>
	...

08002e68 <HAL_PCD_SuspendCallback>:
 8002e68:	b510      	push	{r4, lr}
 8002e6a:	4604      	mov	r4, r0
 8002e6c:	f8d0 0268 	ldr.w	r0, [r0, #616]	; 0x268
 8002e70:	f7ff fa5f 	bl	8002332 <USBD_LL_Suspend>
 8002e74:	69a3      	ldr	r3, [r4, #24]
 8002e76:	b123      	cbz	r3, 8002e82 <HAL_PCD_SuspendCallback+0x1a>
 8002e78:	4a02      	ldr	r2, [pc, #8]	; (8002e84 <HAL_PCD_SuspendCallback+0x1c>)
 8002e7a:	6913      	ldr	r3, [r2, #16]
 8002e7c:	f043 0306 	orr.w	r3, r3, #6
 8002e80:	6113      	str	r3, [r2, #16]
 8002e82:	bd10      	pop	{r4, pc}
 8002e84:	e000ed00 	.word	0xe000ed00

08002e88 <HAL_PCD_ResumeCallback>:
 8002e88:	f8d0 0268 	ldr.w	r0, [r0, #616]	; 0x268
 8002e8c:	f7ff ba5a 	b.w	8002344 <USBD_LL_Resume>

08002e90 <USBD_LL_Init>:
 8002e90:	2302      	movs	r3, #2
 8002e92:	2208      	movs	r2, #8
 8002e94:	b510      	push	{r4, lr}
 8002e96:	491c      	ldr	r1, [pc, #112]	; (8002f08 <USBD_LL_Init+0x78>)
 8002e98:	4604      	mov	r4, r0
 8002e9a:	481c      	ldr	r0, [pc, #112]	; (8002f0c <USBD_LL_Init+0x7c>)
 8002e9c:	e880 000e 	stmia.w	r0, {r1, r2, r3}
 8002ea0:	2300      	movs	r3, #0
 8002ea2:	f8c4 02c0 	str.w	r0, [r4, #704]	; 0x2c0
 8002ea6:	f8c0 4268 	str.w	r4, [r0, #616]	; 0x268
 8002eaa:	6183      	str	r3, [r0, #24]
 8002eac:	61c3      	str	r3, [r0, #28]
 8002eae:	6203      	str	r3, [r0, #32]
 8002eb0:	f7fd faf8 	bl	80004a4 <HAL_PCD_Init>
 8002eb4:	b108      	cbz	r0, 8002eba <USBD_LL_Init+0x2a>
 8002eb6:	f7ff fda1 	bl	80029fc <Error_Handler>
 8002eba:	2200      	movs	r2, #0
 8002ebc:	2318      	movs	r3, #24
 8002ebe:	4611      	mov	r1, r2
 8002ec0:	f8d4 02c0 	ldr.w	r0, [r4, #704]	; 0x2c0
 8002ec4:	f7fd feac 	bl	8000c20 <HAL_PCDEx_PMAConfig>
 8002ec8:	2358      	movs	r3, #88	; 0x58
 8002eca:	2200      	movs	r2, #0
 8002ecc:	2180      	movs	r1, #128	; 0x80
 8002ece:	f8d4 02c0 	ldr.w	r0, [r4, #704]	; 0x2c0
 8002ed2:	f7fd fea5 	bl	8000c20 <HAL_PCDEx_PMAConfig>
 8002ed6:	23c0      	movs	r3, #192	; 0xc0
 8002ed8:	2200      	movs	r2, #0
 8002eda:	2181      	movs	r1, #129	; 0x81
 8002edc:	f8d4 02c0 	ldr.w	r0, [r4, #704]	; 0x2c0
 8002ee0:	f7fd fe9e 	bl	8000c20 <HAL_PCDEx_PMAConfig>
 8002ee4:	f44f 7388 	mov.w	r3, #272	; 0x110
 8002ee8:	2200      	movs	r2, #0
 8002eea:	2101      	movs	r1, #1
 8002eec:	f8d4 02c0 	ldr.w	r0, [r4, #704]	; 0x2c0
 8002ef0:	f7fd fe96 	bl	8000c20 <HAL_PCDEx_PMAConfig>
 8002ef4:	f44f 7380 	mov.w	r3, #256	; 0x100
 8002ef8:	2200      	movs	r2, #0
 8002efa:	2182      	movs	r1, #130	; 0x82
 8002efc:	f8d4 02c0 	ldr.w	r0, [r4, #704]	; 0x2c0
 8002f00:	f7fd fe8e 	bl	8000c20 <HAL_PCDEx_PMAConfig>
 8002f04:	2000      	movs	r0, #0
 8002f06:	bd10      	pop	{r4, pc}
 8002f08:	40005c00 	.word	0x40005c00
 8002f0c:	20000f18 	.word	0x20000f18

08002f10 <USBD_LL_Start>:
 8002f10:	b508      	push	{r3, lr}
 8002f12:	f8d0 02c0 	ldr.w	r0, [r0, #704]	; 0x2c0
 8002f16:	f7fd fb3a 	bl	800058e <HAL_PCD_Start>
 8002f1a:	2803      	cmp	r0, #3
 8002f1c:	bf9a      	itte	ls
 8002f1e:	4b02      	ldrls	r3, [pc, #8]	; (8002f28 <USBD_LL_Start+0x18>)
 8002f20:	5c18      	ldrbls	r0, [r3, r0]
 8002f22:	2002      	movhi	r0, #2
 8002f24:	bd08      	pop	{r3, pc}
 8002f26:	bf00      	nop
 8002f28:	080040cf 	.word	0x080040cf

08002f2c <USBD_LL_OpenEP>:
 8002f2c:	b510      	push	{r4, lr}
 8002f2e:	461c      	mov	r4, r3
 8002f30:	f8d0 02c0 	ldr.w	r0, [r0, #704]	; 0x2c0
 8002f34:	4613      	mov	r3, r2
 8002f36:	4622      	mov	r2, r4
 8002f38:	f7fd fb54 	bl	80005e4 <HAL_PCD_EP_Open>
 8002f3c:	2803      	cmp	r0, #3
 8002f3e:	bf9a      	itte	ls
 8002f40:	4b01      	ldrls	r3, [pc, #4]	; (8002f48 <USBD_LL_OpenEP+0x1c>)
 8002f42:	5c18      	ldrbls	r0, [r3, r0]
 8002f44:	2002      	movhi	r0, #2
 8002f46:	bd10      	pop	{r4, pc}
 8002f48:	080040cf 	.word	0x080040cf

08002f4c <USBD_LL_CloseEP>:
 8002f4c:	b508      	push	{r3, lr}
 8002f4e:	f8d0 02c0 	ldr.w	r0, [r0, #704]	; 0x2c0
 8002f52:	f7fd fb7a 	bl	800064a <HAL_PCD_EP_Close>
 8002f56:	2803      	cmp	r0, #3
 8002f58:	bf9a      	itte	ls
 8002f5a:	4b02      	ldrls	r3, [pc, #8]	; (8002f64 <USBD_LL_CloseEP+0x18>)
 8002f5c:	5c18      	ldrbls	r0, [r3, r0]
 8002f5e:	2002      	movhi	r0, #2
 8002f60:	bd08      	pop	{r3, pc}
 8002f62:	bf00      	nop
 8002f64:	080040cf 	.word	0x080040cf

08002f68 <USBD_LL_StallEP>:
 8002f68:	b508      	push	{r3, lr}
 8002f6a:	f8d0 02c0 	ldr.w	r0, [r0, #704]	; 0x2c0
 8002f6e:	f7fd fdf1 	bl	8000b54 <HAL_PCD_EP_SetStall>
 8002f72:	2803      	cmp	r0, #3
 8002f74:	bf9a      	itte	ls
 8002f76:	4b02      	ldrls	r3, [pc, #8]	; (8002f80 <USBD_LL_StallEP+0x18>)
 8002f78:	5c18      	ldrbls	r0, [r3, r0]
 8002f7a:	2002      	movhi	r0, #2
 8002f7c:	bd08      	pop	{r3, pc}
 8002f7e:	bf00      	nop
 8002f80:	080040cf 	.word	0x080040cf

08002f84 <USBD_LL_ClearStallEP>:
 8002f84:	b508      	push	{r3, lr}
 8002f86:	f8d0 02c0 	ldr.w	r0, [r0, #704]	; 0x2c0
 8002f8a:	f7fd fe17 	bl	8000bbc <HAL_PCD_EP_ClrStall>
 8002f8e:	2803      	cmp	r0, #3
 8002f90:	bf9a      	itte	ls
 8002f92:	4b02      	ldrls	r3, [pc, #8]	; (8002f9c <USBD_LL_ClearStallEP+0x18>)
 8002f94:	5c18      	ldrbls	r0, [r3, r0]
 8002f96:	2002      	movhi	r0, #2
 8002f98:	bd08      	pop	{r3, pc}
 8002f9a:	bf00      	nop
 8002f9c:	080040cf 	.word	0x080040cf

08002fa0 <USBD_LL_IsStallEP>:
 8002fa0:	060a      	lsls	r2, r1, #24
 8002fa2:	f8d0 32c0 	ldr.w	r3, [r0, #704]	; 0x2c0
 8002fa6:	bf45      	ittet	mi
 8002fa8:	f001 017f 	andmi.w	r1, r1, #127	; 0x7f
 8002fac:	eb03 1341 	addmi.w	r3, r3, r1, lsl #5
 8002fb0:	eb03 1341 	addpl.w	r3, r3, r1, lsl #5
 8002fb4:	f893 002a 	ldrbmi.w	r0, [r3, #42]	; 0x2a
 8002fb8:	bf58      	it	pl
 8002fba:	f893 012a 	ldrbpl.w	r0, [r3, #298]	; 0x12a
 8002fbe:	4770      	bx	lr

08002fc0 <USBD_LL_SetUSBAddress>:
 8002fc0:	b508      	push	{r3, lr}
 8002fc2:	f8d0 02c0 	ldr.w	r0, [r0, #704]	; 0x2c0
 8002fc6:	f7fd faf9 	bl	80005bc <HAL_PCD_SetAddress>
 8002fca:	2803      	cmp	r0, #3
 8002fcc:	bf9a      	itte	ls
 8002fce:	4b02      	ldrls	r3, [pc, #8]	; (8002fd8 <USBD_LL_SetUSBAddress+0x18>)
 8002fd0:	5c18      	ldrbls	r0, [r3, r0]
 8002fd2:	2002      	movhi	r0, #2
 8002fd4:	bd08      	pop	{r3, pc}
 8002fd6:	bf00      	nop
 8002fd8:	080040cf 	.word	0x080040cf

08002fdc <USBD_LL_Transmit>:
 8002fdc:	b508      	push	{r3, lr}
 8002fde:	f8d0 02c0 	ldr.w	r0, [r0, #704]	; 0x2c0
 8002fe2:	f7fd fb7a 	bl	80006da <HAL_PCD_EP_Transmit>
 8002fe6:	2803      	cmp	r0, #3
 8002fe8:	bf9a      	itte	ls
 8002fea:	4b02      	ldrls	r3, [pc, #8]	; (8002ff4 <USBD_LL_Transmit+0x18>)
 8002fec:	5c18      	ldrbls	r0, [r3, r0]
 8002fee:	2002      	movhi	r0, #2
 8002ff0:	bd08      	pop	{r3, pc}
 8002ff2:	bf00      	nop
 8002ff4:	080040cf 	.word	0x080040cf

08002ff8 <USBD_LL_PrepareReceive>:
 8002ff8:	b508      	push	{r3, lr}
 8002ffa:	f8d0 02c0 	ldr.w	r0, [r0, #704]	; 0x2c0
 8002ffe:	f7fd fb4d 	bl	800069c <HAL_PCD_EP_Receive>
 8003002:	2803      	cmp	r0, #3
 8003004:	bf9a      	itte	ls
 8003006:	4b02      	ldrls	r3, [pc, #8]	; (8003010 <USBD_LL_PrepareReceive+0x18>)
 8003008:	5c18      	ldrbls	r0, [r3, r0]
 800300a:	2002      	movhi	r0, #2
 800300c:	bd08      	pop	{r3, pc}
 800300e:	bf00      	nop
 8003010:	080040cf 	.word	0x080040cf

08003014 <USBD_LL_GetRxDataSize>:
 8003014:	f8d0 02c0 	ldr.w	r0, [r0, #704]	; 0x2c0
 8003018:	f7fd bb58 	b.w	80006cc <HAL_PCD_EP_GetRxCount>

0800301c <USBD_static_malloc>:
 800301c:	4800      	ldr	r0, [pc, #0]	; (8003020 <USBD_static_malloc+0x4>)
 800301e:	4770      	bx	lr
 8003020:	20000218 	.word	0x20000218

08003024 <USBD_static_free>:
 8003024:	4770      	bx	lr

08003026 <HAL_PCDEx_SetConnectionState>:
 8003026:	4770      	bx	lr

08003028 <USBD_FS_DeviceDescriptor>:
 8003028:	2312      	movs	r3, #18
 800302a:	4801      	ldr	r0, [pc, #4]	; (8003030 <USBD_FS_DeviceDescriptor+0x8>)
 800302c:	800b      	strh	r3, [r1, #0]
 800302e:	4770      	bx	lr
 8003030:	20000148 	.word	0x20000148

08003034 <USBD_FS_LangIDStrDescriptor>:
 8003034:	2304      	movs	r3, #4
 8003036:	4801      	ldr	r0, [pc, #4]	; (800303c <USBD_FS_LangIDStrDescriptor+0x8>)
 8003038:	800b      	strh	r3, [r1, #0]
 800303a:	4770      	bx	lr
 800303c:	2000015c 	.word	0x2000015c

08003040 <IntToUnicode>:
 8003040:	2300      	movs	r3, #0
 8003042:	b530      	push	{r4, r5, lr}
 8003044:	461d      	mov	r5, r3
 8003046:	b2dc      	uxtb	r4, r3
 8003048:	42a2      	cmp	r2, r4
 800304a:	d800      	bhi.n	800304e <IntToUnicode+0xe>
 800304c:	bd30      	pop	{r4, r5, pc}
 800304e:	0f04      	lsrs	r4, r0, #28
 8003050:	2c09      	cmp	r4, #9
 8003052:	bf94      	ite	ls
 8003054:	3430      	addls	r4, #48	; 0x30
 8003056:	3437      	addhi	r4, #55	; 0x37
 8003058:	f801 4013 	strb.w	r4, [r1, r3, lsl #1]
 800305c:	eb01 0443 	add.w	r4, r1, r3, lsl #1
 8003060:	0100      	lsls	r0, r0, #4
 8003062:	7065      	strb	r5, [r4, #1]
 8003064:	3301      	adds	r3, #1
 8003066:	e7ee      	b.n	8003046 <IntToUnicode+0x6>

08003068 <USBD_FS_SerialStrDescriptor>:
 8003068:	231a      	movs	r3, #26
 800306a:	b510      	push	{r4, lr}
 800306c:	800b      	strh	r3, [r1, #0]
 800306e:	4b09      	ldr	r3, [pc, #36]	; (8003094 <USBD_FS_SerialStrDescriptor+0x2c>)
 8003070:	6818      	ldr	r0, [r3, #0]
 8003072:	3308      	adds	r3, #8
 8003074:	681b      	ldr	r3, [r3, #0]
 8003076:	18c0      	adds	r0, r0, r3
 8003078:	d00a      	beq.n	8003090 <USBD_FS_SerialStrDescriptor+0x28>
 800307a:	4b07      	ldr	r3, [pc, #28]	; (8003098 <USBD_FS_SerialStrDescriptor+0x30>)
 800307c:	2208      	movs	r2, #8
 800307e:	681c      	ldr	r4, [r3, #0]
 8003080:	4906      	ldr	r1, [pc, #24]	; (800309c <USBD_FS_SerialStrDescriptor+0x34>)
 8003082:	f7ff ffdd 	bl	8003040 <IntToUnicode>
 8003086:	2204      	movs	r2, #4
 8003088:	4905      	ldr	r1, [pc, #20]	; (80030a0 <USBD_FS_SerialStrDescriptor+0x38>)
 800308a:	4620      	mov	r0, r4
 800308c:	f7ff ffd8 	bl	8003040 <IntToUnicode>
 8003090:	4804      	ldr	r0, [pc, #16]	; (80030a4 <USBD_FS_SerialStrDescriptor+0x3c>)
 8003092:	bd10      	pop	{r4, pc}
 8003094:	1ffff7e8 	.word	0x1ffff7e8
 8003098:	1ffff7ec 	.word	0x1ffff7ec
 800309c:	20000162 	.word	0x20000162
 80030a0:	20000172 	.word	0x20000172
 80030a4:	20000160 	.word	0x20000160

080030a8 <USBD_FS_ManufacturerStrDescriptor>:
 80030a8:	b510      	push	{r4, lr}
 80030aa:	4c04      	ldr	r4, [pc, #16]	; (80030bc <USBD_FS_ManufacturerStrDescriptor+0x14>)
 80030ac:	460a      	mov	r2, r1
 80030ae:	4804      	ldr	r0, [pc, #16]	; (80030c0 <USBD_FS_ManufacturerStrDescriptor+0x18>)
 80030b0:	4621      	mov	r1, r4
 80030b2:	f7ff fb5a 	bl	800276a <USBD_GetString>
 80030b6:	4620      	mov	r0, r4
 80030b8:	bd10      	pop	{r4, pc}
 80030ba:	bf00      	nop
 80030bc:	20001184 	.word	0x20001184
 80030c0:	080040ec 	.word	0x080040ec

080030c4 <USBD_FS_ProductStrDescriptor>:
 80030c4:	b510      	push	{r4, lr}
 80030c6:	4c04      	ldr	r4, [pc, #16]	; (80030d8 <USBD_FS_ProductStrDescriptor+0x14>)
 80030c8:	460a      	mov	r2, r1
 80030ca:	4804      	ldr	r0, [pc, #16]	; (80030dc <USBD_FS_ProductStrDescriptor+0x18>)
 80030cc:	4621      	mov	r1, r4
 80030ce:	f7ff fb4c 	bl	800276a <USBD_GetString>
 80030d2:	4620      	mov	r0, r4
 80030d4:	bd10      	pop	{r4, pc}
 80030d6:	bf00      	nop
 80030d8:	20001184 	.word	0x20001184
 80030dc:	080040ff 	.word	0x080040ff

080030e0 <USBD_FS_ConfigStrDescriptor>:
 80030e0:	b510      	push	{r4, lr}
 80030e2:	4c04      	ldr	r4, [pc, #16]	; (80030f4 <USBD_FS_ConfigStrDescriptor+0x14>)
 80030e4:	460a      	mov	r2, r1
 80030e6:	4804      	ldr	r0, [pc, #16]	; (80030f8 <USBD_FS_ConfigStrDescriptor+0x18>)
 80030e8:	4621      	mov	r1, r4
 80030ea:	f7ff fb3e 	bl	800276a <USBD_GetString>
 80030ee:	4620      	mov	r0, r4
 80030f0:	bd10      	pop	{r4, pc}
 80030f2:	bf00      	nop
 80030f4:	20001184 	.word	0x20001184
 80030f8:	080040d3 	.word	0x080040d3

080030fc <USBD_FS_InterfaceStrDescriptor>:
 80030fc:	b510      	push	{r4, lr}
 80030fe:	4c04      	ldr	r4, [pc, #16]	; (8003110 <USBD_FS_InterfaceStrDescriptor+0x14>)
 8003100:	460a      	mov	r2, r1
 8003102:	4804      	ldr	r0, [pc, #16]	; (8003114 <USBD_FS_InterfaceStrDescriptor+0x18>)
 8003104:	4621      	mov	r1, r4
 8003106:	f7ff fb30 	bl	800276a <USBD_GetString>
 800310a:	4620      	mov	r0, r4
 800310c:	bd10      	pop	{r4, pc}
 800310e:	bf00      	nop
 8003110:	20001184 	.word	0x20001184
 8003114:	080040de 	.word	0x080040de

08003118 <Reset_Handler>:
 8003118:	2100      	movs	r1, #0
 800311a:	e003      	b.n	8003124 <LoopCopyDataInit>

0800311c <CopyDataInit>:
 800311c:	4b0b      	ldr	r3, [pc, #44]	; (800314c <LoopFillZerobss+0x14>)
 800311e:	585b      	ldr	r3, [r3, r1]
 8003120:	5043      	str	r3, [r0, r1]
 8003122:	3104      	adds	r1, #4

08003124 <LoopCopyDataInit>:
 8003124:	480a      	ldr	r0, [pc, #40]	; (8003150 <LoopFillZerobss+0x18>)
 8003126:	4b0b      	ldr	r3, [pc, #44]	; (8003154 <LoopFillZerobss+0x1c>)
 8003128:	1842      	adds	r2, r0, r1
 800312a:	429a      	cmp	r2, r3
 800312c:	d3f6      	bcc.n	800311c <CopyDataInit>
 800312e:	4a0a      	ldr	r2, [pc, #40]	; (8003158 <LoopFillZerobss+0x20>)
 8003130:	e002      	b.n	8003138 <LoopFillZerobss>

08003132 <FillZerobss>:
 8003132:	2300      	movs	r3, #0
 8003134:	f842 3b04 	str.w	r3, [r2], #4

08003138 <LoopFillZerobss>:
 8003138:	4b08      	ldr	r3, [pc, #32]	; (800315c <LoopFillZerobss+0x24>)
 800313a:	429a      	cmp	r2, r3
 800313c:	d3f9      	bcc.n	8003132 <FillZerobss>
 800313e:	f7ff fdd5 	bl	8002cec <SystemInit>
 8003142:	f000 f815 	bl	8003170 <__libc_init_array>
 8003146:	f7ff fba7 	bl	8002898 <main>
 800314a:	4770      	bx	lr
 800314c:	080041b8 	.word	0x080041b8
 8003150:	20000000 	.word	0x20000000
 8003154:	200001e0 	.word	0x200001e0
 8003158:	200001e0 	.word	0x200001e0
 800315c:	20001388 	.word	0x20001388

08003160 <ADC1_2_IRQHandler>:
 8003160:	e7fe      	b.n	8003160 <ADC1_2_IRQHandler>
	...

08003164 <__errno>:
 8003164:	4b01      	ldr	r3, [pc, #4]	; (800316c <__errno+0x8>)
 8003166:	6818      	ldr	r0, [r3, #0]
 8003168:	4770      	bx	lr
 800316a:	bf00      	nop
 800316c:	2000017c 	.word	0x2000017c

08003170 <__libc_init_array>:
 8003170:	b570      	push	{r4, r5, r6, lr}
 8003172:	2500      	movs	r5, #0
 8003174:	4e0c      	ldr	r6, [pc, #48]	; (80031a8 <__libc_init_array+0x38>)
 8003176:	4c0d      	ldr	r4, [pc, #52]	; (80031ac <__libc_init_array+0x3c>)
 8003178:	1ba4      	subs	r4, r4, r6
 800317a:	10a4      	asrs	r4, r4, #2
 800317c:	42a5      	cmp	r5, r4
 800317e:	d109      	bne.n	8003194 <__libc_init_array+0x24>
 8003180:	f000 ff70 	bl	8004064 <_init>
 8003184:	2500      	movs	r5, #0
 8003186:	4e0a      	ldr	r6, [pc, #40]	; (80031b0 <__libc_init_array+0x40>)
 8003188:	4c0a      	ldr	r4, [pc, #40]	; (80031b4 <__libc_init_array+0x44>)
 800318a:	1ba4      	subs	r4, r4, r6
 800318c:	10a4      	asrs	r4, r4, #2
 800318e:	42a5      	cmp	r5, r4
 8003190:	d105      	bne.n	800319e <__libc_init_array+0x2e>
 8003192:	bd70      	pop	{r4, r5, r6, pc}
 8003194:	f856 3025 	ldr.w	r3, [r6, r5, lsl #2]
 8003198:	4798      	blx	r3
 800319a:	3501      	adds	r5, #1
 800319c:	e7ee      	b.n	800317c <__libc_init_array+0xc>
 800319e:	f856 3025 	ldr.w	r3, [r6, r5, lsl #2]
 80031a2:	4798      	blx	r3
 80031a4:	3501      	adds	r5, #1
 80031a6:	e7f2      	b.n	800318e <__libc_init_array+0x1e>
 80031a8:	080041b0 	.word	0x080041b0
 80031ac:	080041b0 	.word	0x080041b0
 80031b0:	080041b0 	.word	0x080041b0
 80031b4:	080041b4 	.word	0x080041b4

080031b8 <memset>:
 80031b8:	4603      	mov	r3, r0
 80031ba:	4402      	add	r2, r0
 80031bc:	4293      	cmp	r3, r2
 80031be:	d100      	bne.n	80031c2 <memset+0xa>
 80031c0:	4770      	bx	lr
 80031c2:	f803 1b01 	strb.w	r1, [r3], #1
 80031c6:	e7f9      	b.n	80031bc <memset+0x4>

080031c8 <iprintf>:
 80031c8:	b40f      	push	{r0, r1, r2, r3}
 80031ca:	4b0a      	ldr	r3, [pc, #40]	; (80031f4 <iprintf+0x2c>)
 80031cc:	b513      	push	{r0, r1, r4, lr}
 80031ce:	681c      	ldr	r4, [r3, #0]
 80031d0:	b124      	cbz	r4, 80031dc <iprintf+0x14>
 80031d2:	69a3      	ldr	r3, [r4, #24]
 80031d4:	b913      	cbnz	r3, 80031dc <iprintf+0x14>
 80031d6:	4620      	mov	r0, r4
 80031d8:	f000 f862 	bl	80032a0 <__sinit>
 80031dc:	ab05      	add	r3, sp, #20
 80031de:	9a04      	ldr	r2, [sp, #16]
 80031e0:	68a1      	ldr	r1, [r4, #8]
 80031e2:	4620      	mov	r0, r4
 80031e4:	9301      	str	r3, [sp, #4]
 80031e6:	f000 f96b 	bl	80034c0 <_vfiprintf_r>
 80031ea:	b002      	add	sp, #8
 80031ec:	e8bd 4010 	ldmia.w	sp!, {r4, lr}
 80031f0:	b004      	add	sp, #16
 80031f2:	4770      	bx	lr
 80031f4:	2000017c 	.word	0x2000017c

080031f8 <putchar>:
 80031f8:	b538      	push	{r3, r4, r5, lr}
 80031fa:	4b08      	ldr	r3, [pc, #32]	; (800321c <putchar+0x24>)
 80031fc:	4605      	mov	r5, r0
 80031fe:	681c      	ldr	r4, [r3, #0]
 8003200:	b124      	cbz	r4, 800320c <putchar+0x14>
 8003202:	69a3      	ldr	r3, [r4, #24]
 8003204:	b913      	cbnz	r3, 800320c <putchar+0x14>
 8003206:	4620      	mov	r0, r4
 8003208:	f000 f84a 	bl	80032a0 <__sinit>
 800320c:	68a2      	ldr	r2, [r4, #8]
 800320e:	4629      	mov	r1, r5
 8003210:	4620      	mov	r0, r4
 8003212:	e8bd 4038 	ldmia.w	sp!, {r3, r4, r5, lr}
 8003216:	f000 bc01 	b.w	8003a1c <_putc_r>
 800321a:	bf00      	nop
 800321c:	2000017c 	.word	0x2000017c

08003220 <_cleanup_r>:
 8003220:	4901      	ldr	r1, [pc, #4]	; (8003228 <_cleanup_r+0x8>)
 8003222:	f000 b8a9 	b.w	8003378 <_fwalk_reent>
 8003226:	bf00      	nop
 8003228:	08003e05 	.word	0x08003e05

0800322c <std.isra.0>:
 800322c:	2300      	movs	r3, #0
 800322e:	b510      	push	{r4, lr}
 8003230:	4604      	mov	r4, r0
 8003232:	6003      	str	r3, [r0, #0]
 8003234:	6043      	str	r3, [r0, #4]
 8003236:	6083      	str	r3, [r0, #8]
 8003238:	8181      	strh	r1, [r0, #12]
 800323a:	6643      	str	r3, [r0, #100]	; 0x64
 800323c:	81c2      	strh	r2, [r0, #14]
 800323e:	6103      	str	r3, [r0, #16]
 8003240:	6143      	str	r3, [r0, #20]
 8003242:	6183      	str	r3, [r0, #24]
 8003244:	4619      	mov	r1, r3
 8003246:	2208      	movs	r2, #8
 8003248:	305c      	adds	r0, #92	; 0x5c
 800324a:	f7ff ffb5 	bl	80031b8 <memset>
 800324e:	4b05      	ldr	r3, [pc, #20]	; (8003264 <std.isra.0+0x38>)
 8003250:	6224      	str	r4, [r4, #32]
 8003252:	6263      	str	r3, [r4, #36]	; 0x24
 8003254:	4b04      	ldr	r3, [pc, #16]	; (8003268 <std.isra.0+0x3c>)
 8003256:	62a3      	str	r3, [r4, #40]	; 0x28
 8003258:	4b04      	ldr	r3, [pc, #16]	; (800326c <std.isra.0+0x40>)
 800325a:	62e3      	str	r3, [r4, #44]	; 0x2c
 800325c:	4b04      	ldr	r3, [pc, #16]	; (8003270 <std.isra.0+0x44>)
 800325e:	6323      	str	r3, [r4, #48]	; 0x30
 8003260:	bd10      	pop	{r4, pc}
 8003262:	bf00      	nop
 8003264:	08003aa9 	.word	0x08003aa9
 8003268:	08003acb 	.word	0x08003acb
 800326c:	08003b03 	.word	0x08003b03
 8003270:	08003b27 	.word	0x08003b27

08003274 <__sfmoreglue>:
 8003274:	b570      	push	{r4, r5, r6, lr}
 8003276:	2568      	movs	r5, #104	; 0x68
 8003278:	1e4a      	subs	r2, r1, #1
 800327a:	4355      	muls	r5, r2
 800327c:	460e      	mov	r6, r1
 800327e:	f105 0174 	add.w	r1, r5, #116	; 0x74
 8003282:	f000 f897 	bl	80033b4 <_malloc_r>
 8003286:	4604      	mov	r4, r0
 8003288:	b140      	cbz	r0, 800329c <__sfmoreglue+0x28>
 800328a:	2100      	movs	r1, #0
 800328c:	e880 0042 	stmia.w	r0, {r1, r6}
 8003290:	300c      	adds	r0, #12
 8003292:	60a0      	str	r0, [r4, #8]
 8003294:	f105 0268 	add.w	r2, r5, #104	; 0x68
 8003298:	f7ff ff8e 	bl	80031b8 <memset>
 800329c:	4620      	mov	r0, r4
 800329e:	bd70      	pop	{r4, r5, r6, pc}

080032a0 <__sinit>:
 80032a0:	6983      	ldr	r3, [r0, #24]
 80032a2:	b510      	push	{r4, lr}
 80032a4:	4604      	mov	r4, r0
 80032a6:	bb33      	cbnz	r3, 80032f6 <__sinit+0x56>
 80032a8:	6483      	str	r3, [r0, #72]	; 0x48
 80032aa:	64c3      	str	r3, [r0, #76]	; 0x4c
 80032ac:	6503      	str	r3, [r0, #80]	; 0x50
 80032ae:	4b12      	ldr	r3, [pc, #72]	; (80032f8 <__sinit+0x58>)
 80032b0:	4a12      	ldr	r2, [pc, #72]	; (80032fc <__sinit+0x5c>)
 80032b2:	681b      	ldr	r3, [r3, #0]
 80032b4:	6282      	str	r2, [r0, #40]	; 0x28
 80032b6:	4298      	cmp	r0, r3
 80032b8:	bf04      	itt	eq
 80032ba:	2301      	moveq	r3, #1
 80032bc:	6183      	streq	r3, [r0, #24]
 80032be:	f000 f81f 	bl	8003300 <__sfp>
 80032c2:	6060      	str	r0, [r4, #4]
 80032c4:	4620      	mov	r0, r4
 80032c6:	f000 f81b 	bl	8003300 <__sfp>
 80032ca:	60a0      	str	r0, [r4, #8]
 80032cc:	4620      	mov	r0, r4
 80032ce:	f000 f817 	bl	8003300 <__sfp>
 80032d2:	2200      	movs	r2, #0
 80032d4:	60e0      	str	r0, [r4, #12]
 80032d6:	2104      	movs	r1, #4
 80032d8:	6860      	ldr	r0, [r4, #4]
 80032da:	f7ff ffa7 	bl	800322c <std.isra.0>
 80032de:	2201      	movs	r2, #1
 80032e0:	2109      	movs	r1, #9
 80032e2:	68a0      	ldr	r0, [r4, #8]
 80032e4:	f7ff ffa2 	bl	800322c <std.isra.0>
 80032e8:	2202      	movs	r2, #2
 80032ea:	2112      	movs	r1, #18
 80032ec:	68e0      	ldr	r0, [r4, #12]
 80032ee:	f7ff ff9d 	bl	800322c <std.isra.0>
 80032f2:	2301      	movs	r3, #1
 80032f4:	61a3      	str	r3, [r4, #24]
 80032f6:	bd10      	pop	{r4, pc}
 80032f8:	08004118 	.word	0x08004118
 80032fc:	08003221 	.word	0x08003221

08003300 <__sfp>:
 8003300:	b5f8      	push	{r3, r4, r5, r6, r7, lr}
 8003302:	4b1c      	ldr	r3, [pc, #112]	; (8003374 <__sfp+0x74>)
 8003304:	4607      	mov	r7, r0
 8003306:	681e      	ldr	r6, [r3, #0]
 8003308:	69b3      	ldr	r3, [r6, #24]
 800330a:	b913      	cbnz	r3, 8003312 <__sfp+0x12>
 800330c:	4630      	mov	r0, r6
 800330e:	f7ff ffc7 	bl	80032a0 <__sinit>
 8003312:	3648      	adds	r6, #72	; 0x48
 8003314:	68b4      	ldr	r4, [r6, #8]
 8003316:	6873      	ldr	r3, [r6, #4]
 8003318:	3b01      	subs	r3, #1
 800331a:	d503      	bpl.n	8003324 <__sfp+0x24>
 800331c:	6833      	ldr	r3, [r6, #0]
 800331e:	b133      	cbz	r3, 800332e <__sfp+0x2e>
 8003320:	6836      	ldr	r6, [r6, #0]
 8003322:	e7f7      	b.n	8003314 <__sfp+0x14>
 8003324:	f9b4 500c 	ldrsh.w	r5, [r4, #12]
 8003328:	b16d      	cbz	r5, 8003346 <__sfp+0x46>
 800332a:	3468      	adds	r4, #104	; 0x68
 800332c:	e7f4      	b.n	8003318 <__sfp+0x18>
 800332e:	2104      	movs	r1, #4
 8003330:	4638      	mov	r0, r7
 8003332:	f7ff ff9f 	bl	8003274 <__sfmoreglue>
 8003336:	6030      	str	r0, [r6, #0]
 8003338:	2800      	cmp	r0, #0
 800333a:	d1f1      	bne.n	8003320 <__sfp+0x20>
 800333c:	230c      	movs	r3, #12
 800333e:	4604      	mov	r4, r0
 8003340:	603b      	str	r3, [r7, #0]
 8003342:	4620      	mov	r0, r4
 8003344:	bdf8      	pop	{r3, r4, r5, r6, r7, pc}
 8003346:	f64f 73ff 	movw	r3, #65535	; 0xffff
 800334a:	81e3      	strh	r3, [r4, #14]
 800334c:	2301      	movs	r3, #1
 800334e:	6665      	str	r5, [r4, #100]	; 0x64
 8003350:	81a3      	strh	r3, [r4, #12]
 8003352:	6025      	str	r5, [r4, #0]
 8003354:	60a5      	str	r5, [r4, #8]
 8003356:	6065      	str	r5, [r4, #4]
 8003358:	6125      	str	r5, [r4, #16]
 800335a:	6165      	str	r5, [r4, #20]
 800335c:	61a5      	str	r5, [r4, #24]
 800335e:	2208      	movs	r2, #8
 8003360:	4629      	mov	r1, r5
 8003362:	f104 005c 	add.w	r0, r4, #92	; 0x5c
 8003366:	f7ff ff27 	bl	80031b8 <memset>
 800336a:	6365      	str	r5, [r4, #52]	; 0x34
 800336c:	63a5      	str	r5, [r4, #56]	; 0x38
 800336e:	64a5      	str	r5, [r4, #72]	; 0x48
 8003370:	64e5      	str	r5, [r4, #76]	; 0x4c
 8003372:	e7e6      	b.n	8003342 <__sfp+0x42>
 8003374:	08004118 	.word	0x08004118

08003378 <_fwalk_reent>:
 8003378:	e92d 43f8 	stmdb	sp!, {r3, r4, r5, r6, r7, r8, r9, lr}
 800337c:	4680      	mov	r8, r0
 800337e:	4689      	mov	r9, r1
 8003380:	2600      	movs	r6, #0
 8003382:	f100 0448 	add.w	r4, r0, #72	; 0x48
 8003386:	b914      	cbnz	r4, 800338e <_fwalk_reent+0x16>
 8003388:	4630      	mov	r0, r6
 800338a:	e8bd 83f8 	ldmia.w	sp!, {r3, r4, r5, r6, r7, r8, r9, pc}
 800338e:	68a5      	ldr	r5, [r4, #8]
 8003390:	6867      	ldr	r7, [r4, #4]
 8003392:	3f01      	subs	r7, #1
 8003394:	d501      	bpl.n	800339a <_fwalk_reent+0x22>
 8003396:	6824      	ldr	r4, [r4, #0]
 8003398:	e7f5      	b.n	8003386 <_fwalk_reent+0xe>
 800339a:	89ab      	ldrh	r3, [r5, #12]
 800339c:	2b01      	cmp	r3, #1
 800339e:	d907      	bls.n	80033b0 <_fwalk_reent+0x38>
 80033a0:	f9b5 300e 	ldrsh.w	r3, [r5, #14]
 80033a4:	3301      	adds	r3, #1
 80033a6:	d003      	beq.n	80033b0 <_fwalk_reent+0x38>
 80033a8:	4629      	mov	r1, r5
 80033aa:	4640      	mov	r0, r8
 80033ac:	47c8      	blx	r9
 80033ae:	4306      	orrs	r6, r0
 80033b0:	3568      	adds	r5, #104	; 0x68
 80033b2:	e7ee      	b.n	8003392 <_fwalk_reent+0x1a>

080033b4 <_malloc_r>:
 80033b4:	b570      	push	{r4, r5, r6, lr}
 80033b6:	1ccd      	adds	r5, r1, #3
 80033b8:	f025 0503 	bic.w	r5, r5, #3
 80033bc:	3508      	adds	r5, #8
 80033be:	2d0c      	cmp	r5, #12
 80033c0:	bf38      	it	cc
 80033c2:	250c      	movcc	r5, #12
 80033c4:	2d00      	cmp	r5, #0
 80033c6:	4606      	mov	r6, r0
 80033c8:	db01      	blt.n	80033ce <_malloc_r+0x1a>
 80033ca:	42a9      	cmp	r1, r5
 80033cc:	d903      	bls.n	80033d6 <_malloc_r+0x22>
 80033ce:	230c      	movs	r3, #12
 80033d0:	6033      	str	r3, [r6, #0]
 80033d2:	2000      	movs	r0, #0
 80033d4:	bd70      	pop	{r4, r5, r6, pc}
 80033d6:	f000 fdc3 	bl	8003f60 <__malloc_lock>
 80033da:	4a23      	ldr	r2, [pc, #140]	; (8003468 <_malloc_r+0xb4>)
 80033dc:	6814      	ldr	r4, [r2, #0]
 80033de:	4621      	mov	r1, r4
 80033e0:	b991      	cbnz	r1, 8003408 <_malloc_r+0x54>
 80033e2:	4c22      	ldr	r4, [pc, #136]	; (800346c <_malloc_r+0xb8>)
 80033e4:	6823      	ldr	r3, [r4, #0]
 80033e6:	b91b      	cbnz	r3, 80033f0 <_malloc_r+0x3c>
 80033e8:	4630      	mov	r0, r6
 80033ea:	f000 fb4d 	bl	8003a88 <_sbrk_r>
 80033ee:	6020      	str	r0, [r4, #0]
 80033f0:	4629      	mov	r1, r5
 80033f2:	4630      	mov	r0, r6
 80033f4:	f000 fb48 	bl	8003a88 <_sbrk_r>
 80033f8:	1c43      	adds	r3, r0, #1
 80033fa:	d126      	bne.n	800344a <_malloc_r+0x96>
 80033fc:	230c      	movs	r3, #12
 80033fe:	4630      	mov	r0, r6
 8003400:	6033      	str	r3, [r6, #0]
 8003402:	f000 fdae 	bl	8003f62 <__malloc_unlock>
 8003406:	e7e4      	b.n	80033d2 <_malloc_r+0x1e>
 8003408:	680b      	ldr	r3, [r1, #0]
 800340a:	1b5b      	subs	r3, r3, r5
 800340c:	d41a      	bmi.n	8003444 <_malloc_r+0x90>
 800340e:	2b0b      	cmp	r3, #11
 8003410:	d90f      	bls.n	8003432 <_malloc_r+0x7e>
 8003412:	600b      	str	r3, [r1, #0]
 8003414:	18cc      	adds	r4, r1, r3
 8003416:	50cd      	str	r5, [r1, r3]
 8003418:	4630      	mov	r0, r6
 800341a:	f000 fda2 	bl	8003f62 <__malloc_unlock>
 800341e:	f104 000b 	add.w	r0, r4, #11
 8003422:	1d23      	adds	r3, r4, #4
 8003424:	f020 0007 	bic.w	r0, r0, #7
 8003428:	1ac3      	subs	r3, r0, r3
 800342a:	d01b      	beq.n	8003464 <_malloc_r+0xb0>
 800342c:	425a      	negs	r2, r3
 800342e:	50e2      	str	r2, [r4, r3]
 8003430:	bd70      	pop	{r4, r5, r6, pc}
 8003432:	428c      	cmp	r4, r1
 8003434:	bf0b      	itete	eq
 8003436:	6863      	ldreq	r3, [r4, #4]
 8003438:	684b      	ldrne	r3, [r1, #4]
 800343a:	6013      	streq	r3, [r2, #0]
 800343c:	6063      	strne	r3, [r4, #4]
 800343e:	bf18      	it	ne
 8003440:	460c      	movne	r4, r1
 8003442:	e7e9      	b.n	8003418 <_malloc_r+0x64>
 8003444:	460c      	mov	r4, r1
 8003446:	6849      	ldr	r1, [r1, #4]
 8003448:	e7ca      	b.n	80033e0 <_malloc_r+0x2c>
 800344a:	1cc4      	adds	r4, r0, #3
 800344c:	f024 0403 	bic.w	r4, r4, #3
 8003450:	42a0      	cmp	r0, r4
 8003452:	d005      	beq.n	8003460 <_malloc_r+0xac>
 8003454:	1a21      	subs	r1, r4, r0
 8003456:	4630      	mov	r0, r6
 8003458:	f000 fb16 	bl	8003a88 <_sbrk_r>
 800345c:	3001      	adds	r0, #1
 800345e:	d0cd      	beq.n	80033fc <_malloc_r+0x48>
 8003460:	6025      	str	r5, [r4, #0]
 8003462:	e7d9      	b.n	8003418 <_malloc_r+0x64>
 8003464:	bd70      	pop	{r4, r5, r6, pc}
 8003466:	bf00      	nop
 8003468:	20000438 	.word	0x20000438
 800346c:	2000043c 	.word	0x2000043c

08003470 <__sfputc_r>:
 8003470:	6893      	ldr	r3, [r2, #8]
 8003472:	b410      	push	{r4}
 8003474:	3b01      	subs	r3, #1
 8003476:	2b00      	cmp	r3, #0
 8003478:	6093      	str	r3, [r2, #8]
 800347a:	da08      	bge.n	800348e <__sfputc_r+0x1e>
 800347c:	6994      	ldr	r4, [r2, #24]
 800347e:	42a3      	cmp	r3, r4
 8003480:	db02      	blt.n	8003488 <__sfputc_r+0x18>
 8003482:	b2cb      	uxtb	r3, r1
 8003484:	2b0a      	cmp	r3, #10
 8003486:	d102      	bne.n	800348e <__sfputc_r+0x1e>
 8003488:	bc10      	pop	{r4}
 800348a:	f000 bb51 	b.w	8003b30 <__swbuf_r>
 800348e:	6813      	ldr	r3, [r2, #0]
 8003490:	1c58      	adds	r0, r3, #1
 8003492:	6010      	str	r0, [r2, #0]
 8003494:	7019      	strb	r1, [r3, #0]
 8003496:	b2c8      	uxtb	r0, r1
 8003498:	bc10      	pop	{r4}
 800349a:	4770      	bx	lr

0800349c <__sfputs_r>:
 800349c:	b5f8      	push	{r3, r4, r5, r6, r7, lr}
 800349e:	4606      	mov	r6, r0
 80034a0:	460f      	mov	r7, r1
 80034a2:	4614      	mov	r4, r2
 80034a4:	18d5      	adds	r5, r2, r3
 80034a6:	42ac      	cmp	r4, r5
 80034a8:	d101      	bne.n	80034ae <__sfputs_r+0x12>
 80034aa:	2000      	movs	r0, #0
 80034ac:	e007      	b.n	80034be <__sfputs_r+0x22>
 80034ae:	463a      	mov	r2, r7
 80034b0:	f814 1b01 	ldrb.w	r1, [r4], #1
 80034b4:	4630      	mov	r0, r6
 80034b6:	f7ff ffdb 	bl	8003470 <__sfputc_r>
 80034ba:	1c43      	adds	r3, r0, #1
 80034bc:	d1f3      	bne.n	80034a6 <__sfputs_r+0xa>
 80034be:	bdf8      	pop	{r3, r4, r5, r6, r7, pc}

080034c0 <_vfiprintf_r>:
 80034c0:	e92d 4ff0 	stmdb	sp!, {r4, r5, r6, r7, r8, r9, sl, fp, lr}
 80034c4:	b09d      	sub	sp, #116	; 0x74
 80034c6:	460c      	mov	r4, r1
 80034c8:	4617      	mov	r7, r2
 80034ca:	9303      	str	r3, [sp, #12]
 80034cc:	4606      	mov	r6, r0
 80034ce:	b118      	cbz	r0, 80034d8 <_vfiprintf_r+0x18>
 80034d0:	6983      	ldr	r3, [r0, #24]
 80034d2:	b90b      	cbnz	r3, 80034d8 <_vfiprintf_r+0x18>
 80034d4:	f7ff fee4 	bl	80032a0 <__sinit>
 80034d8:	4b7c      	ldr	r3, [pc, #496]	; (80036cc <_vfiprintf_r+0x20c>)
 80034da:	429c      	cmp	r4, r3
 80034dc:	d157      	bne.n	800358e <_vfiprintf_r+0xce>
 80034de:	6874      	ldr	r4, [r6, #4]
 80034e0:	89a3      	ldrh	r3, [r4, #12]
 80034e2:	0718      	lsls	r0, r3, #28
 80034e4:	d55d      	bpl.n	80035a2 <_vfiprintf_r+0xe2>
 80034e6:	6923      	ldr	r3, [r4, #16]
 80034e8:	2b00      	cmp	r3, #0
 80034ea:	d05a      	beq.n	80035a2 <_vfiprintf_r+0xe2>
 80034ec:	2300      	movs	r3, #0
 80034ee:	9309      	str	r3, [sp, #36]	; 0x24
 80034f0:	2320      	movs	r3, #32
 80034f2:	f88d 3029 	strb.w	r3, [sp, #41]	; 0x29
 80034f6:	2330      	movs	r3, #48	; 0x30
 80034f8:	f04f 0b01 	mov.w	fp, #1
 80034fc:	f88d 302a 	strb.w	r3, [sp, #42]	; 0x2a
 8003500:	46b8      	mov	r8, r7
 8003502:	4645      	mov	r5, r8
 8003504:	f815 3b01 	ldrb.w	r3, [r5], #1
 8003508:	2b00      	cmp	r3, #0
 800350a:	d155      	bne.n	80035b8 <_vfiprintf_r+0xf8>
 800350c:	ebb8 0a07 	subs.w	sl, r8, r7
 8003510:	d00b      	beq.n	800352a <_vfiprintf_r+0x6a>
 8003512:	4653      	mov	r3, sl
 8003514:	463a      	mov	r2, r7
 8003516:	4621      	mov	r1, r4
 8003518:	4630      	mov	r0, r6
 800351a:	f7ff ffbf 	bl	800349c <__sfputs_r>
 800351e:	3001      	adds	r0, #1
 8003520:	f000 80c4 	beq.w	80036ac <_vfiprintf_r+0x1ec>
 8003524:	9b09      	ldr	r3, [sp, #36]	; 0x24
 8003526:	4453      	add	r3, sl
 8003528:	9309      	str	r3, [sp, #36]	; 0x24
 800352a:	f898 3000 	ldrb.w	r3, [r8]
 800352e:	2b00      	cmp	r3, #0
 8003530:	f000 80bc 	beq.w	80036ac <_vfiprintf_r+0x1ec>
 8003534:	2300      	movs	r3, #0
 8003536:	f04f 32ff 	mov.w	r2, #4294967295
 800353a:	9304      	str	r3, [sp, #16]
 800353c:	9307      	str	r3, [sp, #28]
 800353e:	9205      	str	r2, [sp, #20]
 8003540:	9306      	str	r3, [sp, #24]
 8003542:	f88d 3053 	strb.w	r3, [sp, #83]	; 0x53
 8003546:	931a      	str	r3, [sp, #104]	; 0x68
 8003548:	2205      	movs	r2, #5
 800354a:	7829      	ldrb	r1, [r5, #0]
 800354c:	4860      	ldr	r0, [pc, #384]	; (80036d0 <_vfiprintf_r+0x210>)
 800354e:	f000 fcf9 	bl	8003f44 <memchr>
 8003552:	f105 0801 	add.w	r8, r5, #1
 8003556:	9b04      	ldr	r3, [sp, #16]
 8003558:	2800      	cmp	r0, #0
 800355a:	d131      	bne.n	80035c0 <_vfiprintf_r+0x100>
 800355c:	06d9      	lsls	r1, r3, #27
 800355e:	bf44      	itt	mi
 8003560:	2220      	movmi	r2, #32
 8003562:	f88d 2053 	strbmi.w	r2, [sp, #83]	; 0x53
 8003566:	071a      	lsls	r2, r3, #28
 8003568:	bf44      	itt	mi
 800356a:	222b      	movmi	r2, #43	; 0x2b
 800356c:	f88d 2053 	strbmi.w	r2, [sp, #83]	; 0x53
 8003570:	782a      	ldrb	r2, [r5, #0]
 8003572:	2a2a      	cmp	r2, #42	; 0x2a
 8003574:	d02c      	beq.n	80035d0 <_vfiprintf_r+0x110>
 8003576:	2100      	movs	r1, #0
 8003578:	200a      	movs	r0, #10
 800357a:	9a07      	ldr	r2, [sp, #28]
 800357c:	46a8      	mov	r8, r5
 800357e:	f898 3000 	ldrb.w	r3, [r8]
 8003582:	3501      	adds	r5, #1
 8003584:	3b30      	subs	r3, #48	; 0x30
 8003586:	2b09      	cmp	r3, #9
 8003588:	d96d      	bls.n	8003666 <_vfiprintf_r+0x1a6>
 800358a:	b371      	cbz	r1, 80035ea <_vfiprintf_r+0x12a>
 800358c:	e026      	b.n	80035dc <_vfiprintf_r+0x11c>
 800358e:	4b51      	ldr	r3, [pc, #324]	; (80036d4 <_vfiprintf_r+0x214>)
 8003590:	429c      	cmp	r4, r3
 8003592:	d101      	bne.n	8003598 <_vfiprintf_r+0xd8>
 8003594:	68b4      	ldr	r4, [r6, #8]
 8003596:	e7a3      	b.n	80034e0 <_vfiprintf_r+0x20>
 8003598:	4b4f      	ldr	r3, [pc, #316]	; (80036d8 <_vfiprintf_r+0x218>)
 800359a:	429c      	cmp	r4, r3
 800359c:	bf08      	it	eq
 800359e:	68f4      	ldreq	r4, [r6, #12]
 80035a0:	e79e      	b.n	80034e0 <_vfiprintf_r+0x20>
 80035a2:	4621      	mov	r1, r4
 80035a4:	4630      	mov	r0, r6
 80035a6:	f000 fb27 	bl	8003bf8 <__swsetup_r>
 80035aa:	2800      	cmp	r0, #0
 80035ac:	d09e      	beq.n	80034ec <_vfiprintf_r+0x2c>
 80035ae:	f04f 30ff 	mov.w	r0, #4294967295
 80035b2:	b01d      	add	sp, #116	; 0x74
 80035b4:	e8bd 8ff0 	ldmia.w	sp!, {r4, r5, r6, r7, r8, r9, sl, fp, pc}
 80035b8:	2b25      	cmp	r3, #37	; 0x25
 80035ba:	d0a7      	beq.n	800350c <_vfiprintf_r+0x4c>
 80035bc:	46a8      	mov	r8, r5
 80035be:	e7a0      	b.n	8003502 <_vfiprintf_r+0x42>
 80035c0:	4a43      	ldr	r2, [pc, #268]	; (80036d0 <_vfiprintf_r+0x210>)
 80035c2:	4645      	mov	r5, r8
 80035c4:	1a80      	subs	r0, r0, r2
 80035c6:	fa0b f000 	lsl.w	r0, fp, r0
 80035ca:	4318      	orrs	r0, r3
 80035cc:	9004      	str	r0, [sp, #16]
 80035ce:	e7bb      	b.n	8003548 <_vfiprintf_r+0x88>
 80035d0:	9a03      	ldr	r2, [sp, #12]
 80035d2:	1d11      	adds	r1, r2, #4
 80035d4:	6812      	ldr	r2, [r2, #0]
 80035d6:	9103      	str	r1, [sp, #12]
 80035d8:	2a00      	cmp	r2, #0
 80035da:	db01      	blt.n	80035e0 <_vfiprintf_r+0x120>
 80035dc:	9207      	str	r2, [sp, #28]
 80035de:	e004      	b.n	80035ea <_vfiprintf_r+0x12a>
 80035e0:	4252      	negs	r2, r2
 80035e2:	f043 0302 	orr.w	r3, r3, #2
 80035e6:	9207      	str	r2, [sp, #28]
 80035e8:	9304      	str	r3, [sp, #16]
 80035ea:	f898 3000 	ldrb.w	r3, [r8]
 80035ee:	2b2e      	cmp	r3, #46	; 0x2e
 80035f0:	d110      	bne.n	8003614 <_vfiprintf_r+0x154>
 80035f2:	f898 3001 	ldrb.w	r3, [r8, #1]
 80035f6:	f108 0101 	add.w	r1, r8, #1
 80035fa:	2b2a      	cmp	r3, #42	; 0x2a
 80035fc:	d137      	bne.n	800366e <_vfiprintf_r+0x1ae>
 80035fe:	9b03      	ldr	r3, [sp, #12]
 8003600:	f108 0802 	add.w	r8, r8, #2
 8003604:	1d1a      	adds	r2, r3, #4
 8003606:	681b      	ldr	r3, [r3, #0]
 8003608:	9203      	str	r2, [sp, #12]
 800360a:	2b00      	cmp	r3, #0
 800360c:	bfb8      	it	lt
 800360e:	f04f 33ff 	movlt.w	r3, #4294967295
 8003612:	9305      	str	r3, [sp, #20]
 8003614:	4d31      	ldr	r5, [pc, #196]	; (80036dc <_vfiprintf_r+0x21c>)
 8003616:	2203      	movs	r2, #3
 8003618:	f898 1000 	ldrb.w	r1, [r8]
 800361c:	4628      	mov	r0, r5
 800361e:	f000 fc91 	bl	8003f44 <memchr>
 8003622:	b140      	cbz	r0, 8003636 <_vfiprintf_r+0x176>
 8003624:	2340      	movs	r3, #64	; 0x40
 8003626:	1b40      	subs	r0, r0, r5
 8003628:	fa03 f000 	lsl.w	r0, r3, r0
 800362c:	9b04      	ldr	r3, [sp, #16]
 800362e:	f108 0801 	add.w	r8, r8, #1
 8003632:	4303      	orrs	r3, r0
 8003634:	9304      	str	r3, [sp, #16]
 8003636:	f898 1000 	ldrb.w	r1, [r8]
 800363a:	2206      	movs	r2, #6
 800363c:	4828      	ldr	r0, [pc, #160]	; (80036e0 <_vfiprintf_r+0x220>)
 800363e:	f108 0701 	add.w	r7, r8, #1
 8003642:	f88d 1028 	strb.w	r1, [sp, #40]	; 0x28
 8003646:	f000 fc7d 	bl	8003f44 <memchr>
 800364a:	2800      	cmp	r0, #0
 800364c:	d034      	beq.n	80036b8 <_vfiprintf_r+0x1f8>
 800364e:	4b25      	ldr	r3, [pc, #148]	; (80036e4 <_vfiprintf_r+0x224>)
 8003650:	bb03      	cbnz	r3, 8003694 <_vfiprintf_r+0x1d4>
 8003652:	9b03      	ldr	r3, [sp, #12]
 8003654:	3307      	adds	r3, #7
 8003656:	f023 0307 	bic.w	r3, r3, #7
 800365a:	3308      	adds	r3, #8
 800365c:	9303      	str	r3, [sp, #12]
 800365e:	9b09      	ldr	r3, [sp, #36]	; 0x24
 8003660:	444b      	add	r3, r9
 8003662:	9309      	str	r3, [sp, #36]	; 0x24
 8003664:	e74c      	b.n	8003500 <_vfiprintf_r+0x40>
 8003666:	fb00 3202 	mla	r2, r0, r2, r3
 800366a:	2101      	movs	r1, #1
 800366c:	e786      	b.n	800357c <_vfiprintf_r+0xbc>
 800366e:	2300      	movs	r3, #0
 8003670:	250a      	movs	r5, #10
 8003672:	4618      	mov	r0, r3
 8003674:	9305      	str	r3, [sp, #20]
 8003676:	4688      	mov	r8, r1
 8003678:	f898 2000 	ldrb.w	r2, [r8]
 800367c:	3101      	adds	r1, #1
 800367e:	3a30      	subs	r2, #48	; 0x30
 8003680:	2a09      	cmp	r2, #9
 8003682:	d903      	bls.n	800368c <_vfiprintf_r+0x1cc>
 8003684:	2b00      	cmp	r3, #0
 8003686:	d0c5      	beq.n	8003614 <_vfiprintf_r+0x154>
 8003688:	9005      	str	r0, [sp, #20]
 800368a:	e7c3      	b.n	8003614 <_vfiprintf_r+0x154>
 800368c:	fb05 2000 	mla	r0, r5, r0, r2
 8003690:	2301      	movs	r3, #1
 8003692:	e7f0      	b.n	8003676 <_vfiprintf_r+0x1b6>
 8003694:	ab03      	add	r3, sp, #12
 8003696:	9300      	str	r3, [sp, #0]
 8003698:	4622      	mov	r2, r4
 800369a:	4b13      	ldr	r3, [pc, #76]	; (80036e8 <_vfiprintf_r+0x228>)
 800369c:	a904      	add	r1, sp, #16
 800369e:	4630      	mov	r0, r6
 80036a0:	f3af 8000 	nop.w
 80036a4:	f1b0 3fff 	cmp.w	r0, #4294967295
 80036a8:	4681      	mov	r9, r0
 80036aa:	d1d8      	bne.n	800365e <_vfiprintf_r+0x19e>
 80036ac:	89a3      	ldrh	r3, [r4, #12]
 80036ae:	065b      	lsls	r3, r3, #25
 80036b0:	f53f af7d 	bmi.w	80035ae <_vfiprintf_r+0xee>
 80036b4:	9809      	ldr	r0, [sp, #36]	; 0x24
 80036b6:	e77c      	b.n	80035b2 <_vfiprintf_r+0xf2>
 80036b8:	ab03      	add	r3, sp, #12
 80036ba:	9300      	str	r3, [sp, #0]
 80036bc:	4622      	mov	r2, r4
 80036be:	4b0a      	ldr	r3, [pc, #40]	; (80036e8 <_vfiprintf_r+0x228>)
 80036c0:	a904      	add	r1, sp, #16
 80036c2:	4630      	mov	r0, r6
 80036c4:	f000 f88a 	bl	80037dc <_printf_i>
 80036c8:	e7ec      	b.n	80036a4 <_vfiprintf_r+0x1e4>
 80036ca:	bf00      	nop
 80036cc:	0800413c 	.word	0x0800413c
 80036d0:	0800417c 	.word	0x0800417c
 80036d4:	0800415c 	.word	0x0800415c
 80036d8:	0800411c 	.word	0x0800411c
 80036dc:	08004182 	.word	0x08004182
 80036e0:	08004186 	.word	0x08004186
 80036e4:	00000000 	.word	0x00000000
 80036e8:	0800349d 	.word	0x0800349d

080036ec <_printf_common>:
 80036ec:	e92d 47f0 	stmdb	sp!, {r4, r5, r6, r7, r8, r9, sl, lr}
 80036f0:	4691      	mov	r9, r2
 80036f2:	461f      	mov	r7, r3
 80036f4:	688a      	ldr	r2, [r1, #8]
 80036f6:	690b      	ldr	r3, [r1, #16]
 80036f8:	4606      	mov	r6, r0
 80036fa:	4293      	cmp	r3, r2
 80036fc:	bfb8      	it	lt
 80036fe:	4613      	movlt	r3, r2
 8003700:	f8c9 3000 	str.w	r3, [r9]
 8003704:	f891 2043 	ldrb.w	r2, [r1, #67]	; 0x43
 8003708:	460c      	mov	r4, r1
 800370a:	f8dd 8020 	ldr.w	r8, [sp, #32]
 800370e:	b112      	cbz	r2, 8003716 <_printf_common+0x2a>
 8003710:	3301      	adds	r3, #1
 8003712:	f8c9 3000 	str.w	r3, [r9]
 8003716:	6823      	ldr	r3, [r4, #0]
 8003718:	0699      	lsls	r1, r3, #26
 800371a:	bf42      	ittt	mi
 800371c:	f8d9 3000 	ldrmi.w	r3, [r9]
 8003720:	3302      	addmi	r3, #2
 8003722:	f8c9 3000 	strmi.w	r3, [r9]
 8003726:	6825      	ldr	r5, [r4, #0]
 8003728:	f015 0506 	ands.w	r5, r5, #6
 800372c:	d107      	bne.n	800373e <_printf_common+0x52>
 800372e:	f104 0a19 	add.w	sl, r4, #25
 8003732:	68e3      	ldr	r3, [r4, #12]
 8003734:	f8d9 2000 	ldr.w	r2, [r9]
 8003738:	1a9b      	subs	r3, r3, r2
 800373a:	429d      	cmp	r5, r3
 800373c:	db2a      	blt.n	8003794 <_printf_common+0xa8>
 800373e:	f894 3043 	ldrb.w	r3, [r4, #67]	; 0x43
 8003742:	6822      	ldr	r2, [r4, #0]
 8003744:	3300      	adds	r3, #0
 8003746:	bf18      	it	ne
 8003748:	2301      	movne	r3, #1
 800374a:	0692      	lsls	r2, r2, #26
 800374c:	d42f      	bmi.n	80037ae <_printf_common+0xc2>
 800374e:	f104 0243 	add.w	r2, r4, #67	; 0x43
 8003752:	4639      	mov	r1, r7
 8003754:	4630      	mov	r0, r6
 8003756:	47c0      	blx	r8
 8003758:	3001      	adds	r0, #1
 800375a:	d022      	beq.n	80037a2 <_printf_common+0xb6>
 800375c:	6823      	ldr	r3, [r4, #0]
 800375e:	68e5      	ldr	r5, [r4, #12]
 8003760:	f003 0306 	and.w	r3, r3, #6
 8003764:	2b04      	cmp	r3, #4
 8003766:	bf18      	it	ne
 8003768:	2500      	movne	r5, #0
 800376a:	f8d9 2000 	ldr.w	r2, [r9]
 800376e:	f04f 0900 	mov.w	r9, #0
 8003772:	bf08      	it	eq
 8003774:	1aad      	subeq	r5, r5, r2
 8003776:	68a3      	ldr	r3, [r4, #8]
 8003778:	6922      	ldr	r2, [r4, #16]
 800377a:	bf08      	it	eq
 800377c:	ea25 75e5 	biceq.w	r5, r5, r5, asr #31
 8003780:	4293      	cmp	r3, r2
 8003782:	bfc4      	itt	gt
 8003784:	1a9b      	subgt	r3, r3, r2
 8003786:	18ed      	addgt	r5, r5, r3
 8003788:	341a      	adds	r4, #26
 800378a:	454d      	cmp	r5, r9
 800378c:	d11b      	bne.n	80037c6 <_printf_common+0xda>
 800378e:	2000      	movs	r0, #0
 8003790:	e8bd 87f0 	ldmia.w	sp!, {r4, r5, r6, r7, r8, r9, sl, pc}
 8003794:	2301      	movs	r3, #1
 8003796:	4652      	mov	r2, sl
 8003798:	4639      	mov	r1, r7
 800379a:	4630      	mov	r0, r6
 800379c:	47c0      	blx	r8
 800379e:	3001      	adds	r0, #1
 80037a0:	d103      	bne.n	80037aa <_printf_common+0xbe>
 80037a2:	f04f 30ff 	mov.w	r0, #4294967295
 80037a6:	e8bd 87f0 	ldmia.w	sp!, {r4, r5, r6, r7, r8, r9, sl, pc}
 80037aa:	3501      	adds	r5, #1
 80037ac:	e7c1      	b.n	8003732 <_printf_common+0x46>
 80037ae:	2030      	movs	r0, #48	; 0x30
 80037b0:	18e1      	adds	r1, r4, r3
 80037b2:	f881 0043 	strb.w	r0, [r1, #67]	; 0x43
 80037b6:	1c5a      	adds	r2, r3, #1
 80037b8:	f894 1045 	ldrb.w	r1, [r4, #69]	; 0x45
 80037bc:	4422      	add	r2, r4
 80037be:	3302      	adds	r3, #2
 80037c0:	f882 1043 	strb.w	r1, [r2, #67]	; 0x43
 80037c4:	e7c3      	b.n	800374e <_printf_common+0x62>
 80037c6:	2301      	movs	r3, #1
 80037c8:	4622      	mov	r2, r4
 80037ca:	4639      	mov	r1, r7
 80037cc:	4630      	mov	r0, r6
 80037ce:	47c0      	blx	r8
 80037d0:	3001      	adds	r0, #1
 80037d2:	d0e6      	beq.n	80037a2 <_printf_common+0xb6>
 80037d4:	f109 0901 	add.w	r9, r9, #1
 80037d8:	e7d7      	b.n	800378a <_printf_common+0x9e>
	...

080037dc <_printf_i>:
 80037dc:	e92d 43f0 	stmdb	sp!, {r4, r5, r6, r7, r8, r9, lr}
 80037e0:	4617      	mov	r7, r2
 80037e2:	7e0a      	ldrb	r2, [r1, #24]
 80037e4:	b085      	sub	sp, #20
 80037e6:	2a6e      	cmp	r2, #110	; 0x6e
 80037e8:	4698      	mov	r8, r3
 80037ea:	4606      	mov	r6, r0
 80037ec:	460c      	mov	r4, r1
 80037ee:	9b0c      	ldr	r3, [sp, #48]	; 0x30
 80037f0:	f101 0e43 	add.w	lr, r1, #67	; 0x43
 80037f4:	f000 80bc 	beq.w	8003970 <_printf_i+0x194>
 80037f8:	d81a      	bhi.n	8003830 <_printf_i+0x54>
 80037fa:	2a63      	cmp	r2, #99	; 0x63
 80037fc:	d02e      	beq.n	800385c <_printf_i+0x80>
 80037fe:	d80a      	bhi.n	8003816 <_printf_i+0x3a>
 8003800:	2a00      	cmp	r2, #0
 8003802:	f000 80c8 	beq.w	8003996 <_printf_i+0x1ba>
 8003806:	2a58      	cmp	r2, #88	; 0x58
 8003808:	f000 808a 	beq.w	8003920 <_printf_i+0x144>
 800380c:	f104 0542 	add.w	r5, r4, #66	; 0x42
 8003810:	f884 2042 	strb.w	r2, [r4, #66]	; 0x42
 8003814:	e02a      	b.n	800386c <_printf_i+0x90>
 8003816:	2a64      	cmp	r2, #100	; 0x64
 8003818:	d001      	beq.n	800381e <_printf_i+0x42>
 800381a:	2a69      	cmp	r2, #105	; 0x69
 800381c:	d1f6      	bne.n	800380c <_printf_i+0x30>
 800381e:	6821      	ldr	r1, [r4, #0]
 8003820:	681a      	ldr	r2, [r3, #0]
 8003822:	f011 0f80 	tst.w	r1, #128	; 0x80
 8003826:	d023      	beq.n	8003870 <_printf_i+0x94>
 8003828:	1d11      	adds	r1, r2, #4
 800382a:	6019      	str	r1, [r3, #0]
 800382c:	6813      	ldr	r3, [r2, #0]
 800382e:	e027      	b.n	8003880 <_printf_i+0xa4>
 8003830:	2a73      	cmp	r2, #115	; 0x73
 8003832:	f000 80b4 	beq.w	800399e <_printf_i+0x1c2>
 8003836:	d808      	bhi.n	800384a <_printf_i+0x6e>
 8003838:	2a6f      	cmp	r2, #111	; 0x6f
 800383a:	d02a      	beq.n	8003892 <_printf_i+0xb6>
 800383c:	2a70      	cmp	r2, #112	; 0x70
 800383e:	d1e5      	bne.n	800380c <_printf_i+0x30>
 8003840:	680a      	ldr	r2, [r1, #0]
 8003842:	f042 0220 	orr.w	r2, r2, #32
 8003846:	600a      	str	r2, [r1, #0]
 8003848:	e003      	b.n	8003852 <_printf_i+0x76>
 800384a:	2a75      	cmp	r2, #117	; 0x75
 800384c:	d021      	beq.n	8003892 <_printf_i+0xb6>
 800384e:	2a78      	cmp	r2, #120	; 0x78
 8003850:	d1dc      	bne.n	800380c <_printf_i+0x30>
 8003852:	2278      	movs	r2, #120	; 0x78
 8003854:	496f      	ldr	r1, [pc, #444]	; (8003a14 <_printf_i+0x238>)
 8003856:	f884 2045 	strb.w	r2, [r4, #69]	; 0x45
 800385a:	e064      	b.n	8003926 <_printf_i+0x14a>
 800385c:	681a      	ldr	r2, [r3, #0]
 800385e:	f101 0542 	add.w	r5, r1, #66	; 0x42
 8003862:	1d11      	adds	r1, r2, #4
 8003864:	6019      	str	r1, [r3, #0]
 8003866:	6813      	ldr	r3, [r2, #0]
 8003868:	f884 3042 	strb.w	r3, [r4, #66]	; 0x42
 800386c:	2301      	movs	r3, #1
 800386e:	e0a3      	b.n	80039b8 <_printf_i+0x1dc>
 8003870:	f011 0f40 	tst.w	r1, #64	; 0x40
 8003874:	f102 0104 	add.w	r1, r2, #4
 8003878:	6019      	str	r1, [r3, #0]
 800387a:	d0d7      	beq.n	800382c <_printf_i+0x50>
 800387c:	f9b2 3000 	ldrsh.w	r3, [r2]
 8003880:	2b00      	cmp	r3, #0
 8003882:	da03      	bge.n	800388c <_printf_i+0xb0>
 8003884:	222d      	movs	r2, #45	; 0x2d
 8003886:	425b      	negs	r3, r3
 8003888:	f884 2043 	strb.w	r2, [r4, #67]	; 0x43
 800388c:	4962      	ldr	r1, [pc, #392]	; (8003a18 <_printf_i+0x23c>)
 800388e:	220a      	movs	r2, #10
 8003890:	e017      	b.n	80038c2 <_printf_i+0xe6>
 8003892:	6820      	ldr	r0, [r4, #0]
 8003894:	6819      	ldr	r1, [r3, #0]
 8003896:	f010 0f80 	tst.w	r0, #128	; 0x80
 800389a:	d003      	beq.n	80038a4 <_printf_i+0xc8>
 800389c:	1d08      	adds	r0, r1, #4
 800389e:	6018      	str	r0, [r3, #0]
 80038a0:	680b      	ldr	r3, [r1, #0]
 80038a2:	e006      	b.n	80038b2 <_printf_i+0xd6>
 80038a4:	f010 0f40 	tst.w	r0, #64	; 0x40
 80038a8:	f101 0004 	add.w	r0, r1, #4
 80038ac:	6018      	str	r0, [r3, #0]
 80038ae:	d0f7      	beq.n	80038a0 <_printf_i+0xc4>
 80038b0:	880b      	ldrh	r3, [r1, #0]
 80038b2:	2a6f      	cmp	r2, #111	; 0x6f
 80038b4:	bf14      	ite	ne
 80038b6:	220a      	movne	r2, #10
 80038b8:	2208      	moveq	r2, #8
 80038ba:	4957      	ldr	r1, [pc, #348]	; (8003a18 <_printf_i+0x23c>)
 80038bc:	2000      	movs	r0, #0
 80038be:	f884 0043 	strb.w	r0, [r4, #67]	; 0x43
 80038c2:	6865      	ldr	r5, [r4, #4]
 80038c4:	2d00      	cmp	r5, #0
 80038c6:	60a5      	str	r5, [r4, #8]
 80038c8:	f2c0 809c 	blt.w	8003a04 <_printf_i+0x228>
 80038cc:	6820      	ldr	r0, [r4, #0]
 80038ce:	f020 0004 	bic.w	r0, r0, #4
 80038d2:	6020      	str	r0, [r4, #0]
 80038d4:	2b00      	cmp	r3, #0
 80038d6:	d13f      	bne.n	8003958 <_printf_i+0x17c>
 80038d8:	2d00      	cmp	r5, #0
 80038da:	f040 8095 	bne.w	8003a08 <_printf_i+0x22c>
 80038de:	4675      	mov	r5, lr
 80038e0:	2a08      	cmp	r2, #8
 80038e2:	d10b      	bne.n	80038fc <_printf_i+0x120>
 80038e4:	6823      	ldr	r3, [r4, #0]
 80038e6:	07da      	lsls	r2, r3, #31
 80038e8:	d508      	bpl.n	80038fc <_printf_i+0x120>
 80038ea:	6923      	ldr	r3, [r4, #16]
 80038ec:	6862      	ldr	r2, [r4, #4]
 80038ee:	429a      	cmp	r2, r3
 80038f0:	bfde      	ittt	le
 80038f2:	2330      	movle	r3, #48	; 0x30
 80038f4:	f805 3c01 	strble.w	r3, [r5, #-1]
 80038f8:	f105 35ff 	addle.w	r5, r5, #4294967295
 80038fc:	ebae 0305 	sub.w	r3, lr, r5
 8003900:	6123      	str	r3, [r4, #16]
 8003902:	f8cd 8000 	str.w	r8, [sp]
 8003906:	463b      	mov	r3, r7
 8003908:	aa03      	add	r2, sp, #12
 800390a:	4621      	mov	r1, r4
 800390c:	4630      	mov	r0, r6
 800390e:	f7ff feed 	bl	80036ec <_printf_common>
 8003912:	3001      	adds	r0, #1
 8003914:	d155      	bne.n	80039c2 <_printf_i+0x1e6>
 8003916:	f04f 30ff 	mov.w	r0, #4294967295
 800391a:	b005      	add	sp, #20
 800391c:	e8bd 83f0 	ldmia.w	sp!, {r4, r5, r6, r7, r8, r9, pc}
 8003920:	f881 2045 	strb.w	r2, [r1, #69]	; 0x45
 8003924:	493c      	ldr	r1, [pc, #240]	; (8003a18 <_printf_i+0x23c>)
 8003926:	6822      	ldr	r2, [r4, #0]
 8003928:	6818      	ldr	r0, [r3, #0]
 800392a:	f012 0f80 	tst.w	r2, #128	; 0x80
 800392e:	f100 0504 	add.w	r5, r0, #4
 8003932:	601d      	str	r5, [r3, #0]
 8003934:	d001      	beq.n	800393a <_printf_i+0x15e>
 8003936:	6803      	ldr	r3, [r0, #0]
 8003938:	e002      	b.n	8003940 <_printf_i+0x164>
 800393a:	0655      	lsls	r5, r2, #25
 800393c:	d5fb      	bpl.n	8003936 <_printf_i+0x15a>
 800393e:	8803      	ldrh	r3, [r0, #0]
 8003940:	07d0      	lsls	r0, r2, #31
 8003942:	bf44      	itt	mi
 8003944:	f042 0220 	orrmi.w	r2, r2, #32
 8003948:	6022      	strmi	r2, [r4, #0]
 800394a:	b91b      	cbnz	r3, 8003954 <_printf_i+0x178>
 800394c:	6822      	ldr	r2, [r4, #0]
 800394e:	f022 0220 	bic.w	r2, r2, #32
 8003952:	6022      	str	r2, [r4, #0]
 8003954:	2210      	movs	r2, #16
 8003956:	e7b1      	b.n	80038bc <_printf_i+0xe0>
 8003958:	4675      	mov	r5, lr
 800395a:	fbb3 f0f2 	udiv	r0, r3, r2
 800395e:	fb02 3310 	mls	r3, r2, r0, r3
 8003962:	5ccb      	ldrb	r3, [r1, r3]
 8003964:	f805 3d01 	strb.w	r3, [r5, #-1]!
 8003968:	4603      	mov	r3, r0
 800396a:	2800      	cmp	r0, #0
 800396c:	d1f5      	bne.n	800395a <_printf_i+0x17e>
 800396e:	e7b7      	b.n	80038e0 <_printf_i+0x104>
 8003970:	6808      	ldr	r0, [r1, #0]
 8003972:	681a      	ldr	r2, [r3, #0]
 8003974:	f010 0f80 	tst.w	r0, #128	; 0x80
 8003978:	6949      	ldr	r1, [r1, #20]
 800397a:	d004      	beq.n	8003986 <_printf_i+0x1aa>
 800397c:	1d10      	adds	r0, r2, #4
 800397e:	6018      	str	r0, [r3, #0]
 8003980:	6813      	ldr	r3, [r2, #0]
 8003982:	6019      	str	r1, [r3, #0]
 8003984:	e007      	b.n	8003996 <_printf_i+0x1ba>
 8003986:	f010 0f40 	tst.w	r0, #64	; 0x40
 800398a:	f102 0004 	add.w	r0, r2, #4
 800398e:	6018      	str	r0, [r3, #0]
 8003990:	6813      	ldr	r3, [r2, #0]
 8003992:	d0f6      	beq.n	8003982 <_printf_i+0x1a6>
 8003994:	8019      	strh	r1, [r3, #0]
 8003996:	2300      	movs	r3, #0
 8003998:	4675      	mov	r5, lr
 800399a:	6123      	str	r3, [r4, #16]
 800399c:	e7b1      	b.n	8003902 <_printf_i+0x126>
 800399e:	681a      	ldr	r2, [r3, #0]
 80039a0:	1d11      	adds	r1, r2, #4
 80039a2:	6019      	str	r1, [r3, #0]
 80039a4:	6815      	ldr	r5, [r2, #0]
 80039a6:	2100      	movs	r1, #0
 80039a8:	6862      	ldr	r2, [r4, #4]
 80039aa:	4628      	mov	r0, r5
 80039ac:	f000 faca 	bl	8003f44 <memchr>
 80039b0:	b108      	cbz	r0, 80039b6 <_printf_i+0x1da>
 80039b2:	1b40      	subs	r0, r0, r5
 80039b4:	6060      	str	r0, [r4, #4]
 80039b6:	6863      	ldr	r3, [r4, #4]
 80039b8:	6123      	str	r3, [r4, #16]
 80039ba:	2300      	movs	r3, #0
 80039bc:	f884 3043 	strb.w	r3, [r4, #67]	; 0x43
 80039c0:	e79f      	b.n	8003902 <_printf_i+0x126>
 80039c2:	6923      	ldr	r3, [r4, #16]
 80039c4:	462a      	mov	r2, r5
 80039c6:	4639      	mov	r1, r7
 80039c8:	4630      	mov	r0, r6
 80039ca:	47c0      	blx	r8
 80039cc:	3001      	adds	r0, #1
 80039ce:	d0a2      	beq.n	8003916 <_printf_i+0x13a>
 80039d0:	6823      	ldr	r3, [r4, #0]
 80039d2:	079b      	lsls	r3, r3, #30
 80039d4:	d507      	bpl.n	80039e6 <_printf_i+0x20a>
 80039d6:	2500      	movs	r5, #0
 80039d8:	f104 0919 	add.w	r9, r4, #25
 80039dc:	68e3      	ldr	r3, [r4, #12]
 80039de:	9a03      	ldr	r2, [sp, #12]
 80039e0:	1a9b      	subs	r3, r3, r2
 80039e2:	429d      	cmp	r5, r3
 80039e4:	db05      	blt.n	80039f2 <_printf_i+0x216>
 80039e6:	68e0      	ldr	r0, [r4, #12]
 80039e8:	9b03      	ldr	r3, [sp, #12]
 80039ea:	4298      	cmp	r0, r3
 80039ec:	bfb8      	it	lt
 80039ee:	4618      	movlt	r0, r3
 80039f0:	e793      	b.n	800391a <_printf_i+0x13e>
 80039f2:	2301      	movs	r3, #1
 80039f4:	464a      	mov	r2, r9
 80039f6:	4639      	mov	r1, r7
 80039f8:	4630      	mov	r0, r6
 80039fa:	47c0      	blx	r8
 80039fc:	3001      	adds	r0, #1
 80039fe:	d08a      	beq.n	8003916 <_printf_i+0x13a>
 8003a00:	3501      	adds	r5, #1
 8003a02:	e7eb      	b.n	80039dc <_printf_i+0x200>
 8003a04:	2b00      	cmp	r3, #0
 8003a06:	d1a7      	bne.n	8003958 <_printf_i+0x17c>
 8003a08:	780b      	ldrb	r3, [r1, #0]
 8003a0a:	f104 0542 	add.w	r5, r4, #66	; 0x42
 8003a0e:	f884 3042 	strb.w	r3, [r4, #66]	; 0x42
 8003a12:	e765      	b.n	80038e0 <_printf_i+0x104>
 8003a14:	0800419e 	.word	0x0800419e
 8003a18:	0800418d 	.word	0x0800418d

08003a1c <_putc_r>:
 8003a1c:	b570      	push	{r4, r5, r6, lr}
 8003a1e:	460d      	mov	r5, r1
 8003a20:	4614      	mov	r4, r2
 8003a22:	4606      	mov	r6, r0
 8003a24:	b118      	cbz	r0, 8003a2e <_putc_r+0x12>
 8003a26:	6983      	ldr	r3, [r0, #24]
 8003a28:	b90b      	cbnz	r3, 8003a2e <_putc_r+0x12>
 8003a2a:	f7ff fc39 	bl	80032a0 <__sinit>
 8003a2e:	4b13      	ldr	r3, [pc, #76]	; (8003a7c <_putc_r+0x60>)
 8003a30:	429c      	cmp	r4, r3
 8003a32:	d112      	bne.n	8003a5a <_putc_r+0x3e>
 8003a34:	6874      	ldr	r4, [r6, #4]
 8003a36:	68a3      	ldr	r3, [r4, #8]
 8003a38:	3b01      	subs	r3, #1
 8003a3a:	2b00      	cmp	r3, #0
 8003a3c:	60a3      	str	r3, [r4, #8]
 8003a3e:	da16      	bge.n	8003a6e <_putc_r+0x52>
 8003a40:	69a2      	ldr	r2, [r4, #24]
 8003a42:	4293      	cmp	r3, r2
 8003a44:	db02      	blt.n	8003a4c <_putc_r+0x30>
 8003a46:	b2eb      	uxtb	r3, r5
 8003a48:	2b0a      	cmp	r3, #10
 8003a4a:	d110      	bne.n	8003a6e <_putc_r+0x52>
 8003a4c:	4622      	mov	r2, r4
 8003a4e:	4629      	mov	r1, r5
 8003a50:	4630      	mov	r0, r6
 8003a52:	e8bd 4070 	ldmia.w	sp!, {r4, r5, r6, lr}
 8003a56:	f000 b86b 	b.w	8003b30 <__swbuf_r>
 8003a5a:	4b09      	ldr	r3, [pc, #36]	; (8003a80 <_putc_r+0x64>)
 8003a5c:	429c      	cmp	r4, r3
 8003a5e:	d101      	bne.n	8003a64 <_putc_r+0x48>
 8003a60:	68b4      	ldr	r4, [r6, #8]
 8003a62:	e7e8      	b.n	8003a36 <_putc_r+0x1a>
 8003a64:	4b07      	ldr	r3, [pc, #28]	; (8003a84 <_putc_r+0x68>)
 8003a66:	429c      	cmp	r4, r3
 8003a68:	bf08      	it	eq
 8003a6a:	68f4      	ldreq	r4, [r6, #12]
 8003a6c:	e7e3      	b.n	8003a36 <_putc_r+0x1a>
 8003a6e:	6823      	ldr	r3, [r4, #0]
 8003a70:	b2e8      	uxtb	r0, r5
 8003a72:	1c5a      	adds	r2, r3, #1
 8003a74:	6022      	str	r2, [r4, #0]
 8003a76:	701d      	strb	r5, [r3, #0]
 8003a78:	bd70      	pop	{r4, r5, r6, pc}
 8003a7a:	bf00      	nop
 8003a7c:	0800413c 	.word	0x0800413c
 8003a80:	0800415c 	.word	0x0800415c
 8003a84:	0800411c 	.word	0x0800411c

08003a88 <_sbrk_r>:
 8003a88:	b538      	push	{r3, r4, r5, lr}
 8003a8a:	2300      	movs	r3, #0
 8003a8c:	4c05      	ldr	r4, [pc, #20]	; (8003aa4 <_sbrk_r+0x1c>)
 8003a8e:	4605      	mov	r5, r0
 8003a90:	4608      	mov	r0, r1
 8003a92:	6023      	str	r3, [r4, #0]
 8003a94:	f7ff f904 	bl	8002ca0 <_sbrk>
 8003a98:	1c43      	adds	r3, r0, #1
 8003a9a:	d102      	bne.n	8003aa2 <_sbrk_r+0x1a>
 8003a9c:	6823      	ldr	r3, [r4, #0]
 8003a9e:	b103      	cbz	r3, 8003aa2 <_sbrk_r+0x1a>
 8003aa0:	602b      	str	r3, [r5, #0]
 8003aa2:	bd38      	pop	{r3, r4, r5, pc}
 8003aa4:	20001384 	.word	0x20001384

08003aa8 <__sread>:
 8003aa8:	b510      	push	{r4, lr}
 8003aaa:	460c      	mov	r4, r1
 8003aac:	f9b1 100e 	ldrsh.w	r1, [r1, #14]
 8003ab0:	f000 faa4 	bl	8003ffc <_read_r>
 8003ab4:	2800      	cmp	r0, #0
 8003ab6:	bfab      	itete	ge
 8003ab8:	6d63      	ldrge	r3, [r4, #84]	; 0x54
 8003aba:	89a3      	ldrhlt	r3, [r4, #12]
 8003abc:	181b      	addge	r3, r3, r0
 8003abe:	f423 5380 	biclt.w	r3, r3, #4096	; 0x1000
 8003ac2:	bfac      	ite	ge
 8003ac4:	6563      	strge	r3, [r4, #84]	; 0x54
 8003ac6:	81a3      	strhlt	r3, [r4, #12]
 8003ac8:	bd10      	pop	{r4, pc}

08003aca <__swrite>:
 8003aca:	e92d 41f0 	stmdb	sp!, {r4, r5, r6, r7, r8, lr}
 8003ace:	461f      	mov	r7, r3
 8003ad0:	898b      	ldrh	r3, [r1, #12]
 8003ad2:	4605      	mov	r5, r0
 8003ad4:	05db      	lsls	r3, r3, #23
 8003ad6:	460c      	mov	r4, r1
 8003ad8:	4616      	mov	r6, r2
 8003ada:	d505      	bpl.n	8003ae8 <__swrite+0x1e>
 8003adc:	2302      	movs	r3, #2
 8003ade:	2200      	movs	r2, #0
 8003ae0:	f9b1 100e 	ldrsh.w	r1, [r1, #14]
 8003ae4:	f000 f9b8 	bl	8003e58 <_lseek_r>
 8003ae8:	89a3      	ldrh	r3, [r4, #12]
 8003aea:	4632      	mov	r2, r6
 8003aec:	f423 5380 	bic.w	r3, r3, #4096	; 0x1000
 8003af0:	81a3      	strh	r3, [r4, #12]
 8003af2:	f9b4 100e 	ldrsh.w	r1, [r4, #14]
 8003af6:	463b      	mov	r3, r7
 8003af8:	4628      	mov	r0, r5
 8003afa:	e8bd 41f0 	ldmia.w	sp!, {r4, r5, r6, r7, r8, lr}
 8003afe:	f000 b869 	b.w	8003bd4 <_write_r>

08003b02 <__sseek>:
 8003b02:	b510      	push	{r4, lr}
 8003b04:	460c      	mov	r4, r1
 8003b06:	f9b1 100e 	ldrsh.w	r1, [r1, #14]
 8003b0a:	f000 f9a5 	bl	8003e58 <_lseek_r>
 8003b0e:	1c43      	adds	r3, r0, #1
 8003b10:	89a3      	ldrh	r3, [r4, #12]
 8003b12:	bf15      	itete	ne
 8003b14:	6560      	strne	r0, [r4, #84]	; 0x54
 8003b16:	f423 5380 	biceq.w	r3, r3, #4096	; 0x1000
 8003b1a:	f443 5380 	orrne.w	r3, r3, #4096	; 0x1000
 8003b1e:	81a3      	strheq	r3, [r4, #12]
 8003b20:	bf18      	it	ne
 8003b22:	81a3      	strhne	r3, [r4, #12]
 8003b24:	bd10      	pop	{r4, pc}

08003b26 <__sclose>:
 8003b26:	f9b1 100e 	ldrsh.w	r1, [r1, #14]
 8003b2a:	f000 b8d3 	b.w	8003cd4 <_close_r>
	...

08003b30 <__swbuf_r>:
 8003b30:	b5f8      	push	{r3, r4, r5, r6, r7, lr}
 8003b32:	460e      	mov	r6, r1
 8003b34:	4614      	mov	r4, r2
 8003b36:	4605      	mov	r5, r0
 8003b38:	b118      	cbz	r0, 8003b42 <__swbuf_r+0x12>
 8003b3a:	6983      	ldr	r3, [r0, #24]
 8003b3c:	b90b      	cbnz	r3, 8003b42 <__swbuf_r+0x12>
 8003b3e:	f7ff fbaf 	bl	80032a0 <__sinit>
 8003b42:	4b21      	ldr	r3, [pc, #132]	; (8003bc8 <__swbuf_r+0x98>)
 8003b44:	429c      	cmp	r4, r3
 8003b46:	d12a      	bne.n	8003b9e <__swbuf_r+0x6e>
 8003b48:	686c      	ldr	r4, [r5, #4]
 8003b4a:	69a3      	ldr	r3, [r4, #24]
 8003b4c:	60a3      	str	r3, [r4, #8]
 8003b4e:	89a3      	ldrh	r3, [r4, #12]
 8003b50:	071a      	lsls	r2, r3, #28
 8003b52:	d52e      	bpl.n	8003bb2 <__swbuf_r+0x82>
 8003b54:	6923      	ldr	r3, [r4, #16]
 8003b56:	b363      	cbz	r3, 8003bb2 <__swbuf_r+0x82>
 8003b58:	6923      	ldr	r3, [r4, #16]
 8003b5a:	6820      	ldr	r0, [r4, #0]
 8003b5c:	b2f6      	uxtb	r6, r6
 8003b5e:	1ac0      	subs	r0, r0, r3
 8003b60:	6963      	ldr	r3, [r4, #20]
 8003b62:	4637      	mov	r7, r6
 8003b64:	4298      	cmp	r0, r3
 8003b66:	db04      	blt.n	8003b72 <__swbuf_r+0x42>
 8003b68:	4621      	mov	r1, r4
 8003b6a:	4628      	mov	r0, r5
 8003b6c:	f000 f94a 	bl	8003e04 <_fflush_r>
 8003b70:	bb28      	cbnz	r0, 8003bbe <__swbuf_r+0x8e>
 8003b72:	68a3      	ldr	r3, [r4, #8]
 8003b74:	3001      	adds	r0, #1
 8003b76:	3b01      	subs	r3, #1
 8003b78:	60a3      	str	r3, [r4, #8]
 8003b7a:	6823      	ldr	r3, [r4, #0]
 8003b7c:	1c5a      	adds	r2, r3, #1
 8003b7e:	6022      	str	r2, [r4, #0]
 8003b80:	701e      	strb	r6, [r3, #0]
 8003b82:	6963      	ldr	r3, [r4, #20]
 8003b84:	4298      	cmp	r0, r3
 8003b86:	d004      	beq.n	8003b92 <__swbuf_r+0x62>
 8003b88:	89a3      	ldrh	r3, [r4, #12]
 8003b8a:	07db      	lsls	r3, r3, #31
 8003b8c:	d519      	bpl.n	8003bc2 <__swbuf_r+0x92>
 8003b8e:	2e0a      	cmp	r6, #10
 8003b90:	d117      	bne.n	8003bc2 <__swbuf_r+0x92>
 8003b92:	4621      	mov	r1, r4
 8003b94:	4628      	mov	r0, r5
 8003b96:	f000 f935 	bl	8003e04 <_fflush_r>
 8003b9a:	b190      	cbz	r0, 8003bc2 <__swbuf_r+0x92>
 8003b9c:	e00f      	b.n	8003bbe <__swbuf_r+0x8e>
 8003b9e:	4b0b      	ldr	r3, [pc, #44]	; (8003bcc <__swbuf_r+0x9c>)
 8003ba0:	429c      	cmp	r4, r3
 8003ba2:	d101      	bne.n	8003ba8 <__swbuf_r+0x78>
 8003ba4:	68ac      	ldr	r4, [r5, #8]
 8003ba6:	e7d0      	b.n	8003b4a <__swbuf_r+0x1a>
 8003ba8:	4b09      	ldr	r3, [pc, #36]	; (8003bd0 <__swbuf_r+0xa0>)
 8003baa:	429c      	cmp	r4, r3
 8003bac:	bf08      	it	eq
 8003bae:	68ec      	ldreq	r4, [r5, #12]
 8003bb0:	e7cb      	b.n	8003b4a <__swbuf_r+0x1a>
 8003bb2:	4621      	mov	r1, r4
 8003bb4:	4628      	mov	r0, r5
 8003bb6:	f000 f81f 	bl	8003bf8 <__swsetup_r>
 8003bba:	2800      	cmp	r0, #0
 8003bbc:	d0cc      	beq.n	8003b58 <__swbuf_r+0x28>
 8003bbe:	f04f 37ff 	mov.w	r7, #4294967295
 8003bc2:	4638      	mov	r0, r7
 8003bc4:	bdf8      	pop	{r3, r4, r5, r6, r7, pc}
 8003bc6:	bf00      	nop
 8003bc8:	0800413c 	.word	0x0800413c
 8003bcc:	0800415c 	.word	0x0800415c
 8003bd0:	0800411c 	.word	0x0800411c

08003bd4 <_write_r>:
 8003bd4:	b538      	push	{r3, r4, r5, lr}
 8003bd6:	4605      	mov	r5, r0
 8003bd8:	4608      	mov	r0, r1
 8003bda:	4611      	mov	r1, r2
 8003bdc:	2200      	movs	r2, #0
 8003bde:	4c05      	ldr	r4, [pc, #20]	; (8003bf4 <_write_r+0x20>)
 8003be0:	6022      	str	r2, [r4, #0]
 8003be2:	461a      	mov	r2, r3
 8003be4:	f7ff f84e 	bl	8002c84 <_write>
 8003be8:	1c43      	adds	r3, r0, #1
 8003bea:	d102      	bne.n	8003bf2 <_write_r+0x1e>
 8003bec:	6823      	ldr	r3, [r4, #0]
 8003bee:	b103      	cbz	r3, 8003bf2 <_write_r+0x1e>
 8003bf0:	602b      	str	r3, [r5, #0]
 8003bf2:	bd38      	pop	{r3, r4, r5, pc}
 8003bf4:	20001384 	.word	0x20001384

08003bf8 <__swsetup_r>:
 8003bf8:	4b32      	ldr	r3, [pc, #200]	; (8003cc4 <__swsetup_r+0xcc>)
 8003bfa:	b570      	push	{r4, r5, r6, lr}
 8003bfc:	681d      	ldr	r5, [r3, #0]
 8003bfe:	4606      	mov	r6, r0
 8003c00:	460c      	mov	r4, r1
 8003c02:	b125      	cbz	r5, 8003c0e <__swsetup_r+0x16>
 8003c04:	69ab      	ldr	r3, [r5, #24]
 8003c06:	b913      	cbnz	r3, 8003c0e <__swsetup_r+0x16>
 8003c08:	4628      	mov	r0, r5
 8003c0a:	f7ff fb49 	bl	80032a0 <__sinit>
 8003c0e:	4b2e      	ldr	r3, [pc, #184]	; (8003cc8 <__swsetup_r+0xd0>)
 8003c10:	429c      	cmp	r4, r3
 8003c12:	d10f      	bne.n	8003c34 <__swsetup_r+0x3c>
 8003c14:	686c      	ldr	r4, [r5, #4]
 8003c16:	f9b4 300c 	ldrsh.w	r3, [r4, #12]
 8003c1a:	b29a      	uxth	r2, r3
 8003c1c:	0715      	lsls	r5, r2, #28
 8003c1e:	d42c      	bmi.n	8003c7a <__swsetup_r+0x82>
 8003c20:	06d0      	lsls	r0, r2, #27
 8003c22:	d411      	bmi.n	8003c48 <__swsetup_r+0x50>
 8003c24:	2209      	movs	r2, #9
 8003c26:	6032      	str	r2, [r6, #0]
 8003c28:	f043 0340 	orr.w	r3, r3, #64	; 0x40
 8003c2c:	81a3      	strh	r3, [r4, #12]
 8003c2e:	f04f 30ff 	mov.w	r0, #4294967295
 8003c32:	bd70      	pop	{r4, r5, r6, pc}
 8003c34:	4b25      	ldr	r3, [pc, #148]	; (8003ccc <__swsetup_r+0xd4>)
 8003c36:	429c      	cmp	r4, r3
 8003c38:	d101      	bne.n	8003c3e <__swsetup_r+0x46>
 8003c3a:	68ac      	ldr	r4, [r5, #8]
 8003c3c:	e7eb      	b.n	8003c16 <__swsetup_r+0x1e>
 8003c3e:	4b24      	ldr	r3, [pc, #144]	; (8003cd0 <__swsetup_r+0xd8>)
 8003c40:	429c      	cmp	r4, r3
 8003c42:	bf08      	it	eq
 8003c44:	68ec      	ldreq	r4, [r5, #12]
 8003c46:	e7e6      	b.n	8003c16 <__swsetup_r+0x1e>
 8003c48:	0751      	lsls	r1, r2, #29
 8003c4a:	d512      	bpl.n	8003c72 <__swsetup_r+0x7a>
 8003c4c:	6b61      	ldr	r1, [r4, #52]	; 0x34
 8003c4e:	b141      	cbz	r1, 8003c62 <__swsetup_r+0x6a>
 8003c50:	f104 0344 	add.w	r3, r4, #68	; 0x44
 8003c54:	4299      	cmp	r1, r3
 8003c56:	d002      	beq.n	8003c5e <__swsetup_r+0x66>
 8003c58:	4630      	mov	r0, r6
 8003c5a:	f000 f983 	bl	8003f64 <_free_r>
 8003c5e:	2300      	movs	r3, #0
 8003c60:	6363      	str	r3, [r4, #52]	; 0x34
 8003c62:	89a3      	ldrh	r3, [r4, #12]
 8003c64:	f023 0324 	bic.w	r3, r3, #36	; 0x24
 8003c68:	81a3      	strh	r3, [r4, #12]
 8003c6a:	2300      	movs	r3, #0
 8003c6c:	6063      	str	r3, [r4, #4]
 8003c6e:	6923      	ldr	r3, [r4, #16]
 8003c70:	6023      	str	r3, [r4, #0]
 8003c72:	89a3      	ldrh	r3, [r4, #12]
 8003c74:	f043 0308 	orr.w	r3, r3, #8
 8003c78:	81a3      	strh	r3, [r4, #12]
 8003c7a:	6923      	ldr	r3, [r4, #16]
 8003c7c:	b94b      	cbnz	r3, 8003c92 <__swsetup_r+0x9a>
 8003c7e:	89a3      	ldrh	r3, [r4, #12]
 8003c80:	f403 7320 	and.w	r3, r3, #640	; 0x280
 8003c84:	f5b3 7f00 	cmp.w	r3, #512	; 0x200
 8003c88:	d003      	beq.n	8003c92 <__swsetup_r+0x9a>
 8003c8a:	4621      	mov	r1, r4
 8003c8c:	4630      	mov	r0, r6
 8003c8e:	f000 f919 	bl	8003ec4 <__smakebuf_r>
 8003c92:	89a2      	ldrh	r2, [r4, #12]
 8003c94:	f012 0301 	ands.w	r3, r2, #1
 8003c98:	d00c      	beq.n	8003cb4 <__swsetup_r+0xbc>
 8003c9a:	2300      	movs	r3, #0
 8003c9c:	60a3      	str	r3, [r4, #8]
 8003c9e:	6963      	ldr	r3, [r4, #20]
 8003ca0:	425b      	negs	r3, r3
 8003ca2:	61a3      	str	r3, [r4, #24]
 8003ca4:	6923      	ldr	r3, [r4, #16]
 8003ca6:	b953      	cbnz	r3, 8003cbe <__swsetup_r+0xc6>
 8003ca8:	f9b4 300c 	ldrsh.w	r3, [r4, #12]
 8003cac:	f013 0080 	ands.w	r0, r3, #128	; 0x80
 8003cb0:	d1ba      	bne.n	8003c28 <__swsetup_r+0x30>
 8003cb2:	bd70      	pop	{r4, r5, r6, pc}
 8003cb4:	0792      	lsls	r2, r2, #30
 8003cb6:	bf58      	it	pl
 8003cb8:	6963      	ldrpl	r3, [r4, #20]
 8003cba:	60a3      	str	r3, [r4, #8]
 8003cbc:	e7f2      	b.n	8003ca4 <__swsetup_r+0xac>
 8003cbe:	2000      	movs	r0, #0
 8003cc0:	e7f7      	b.n	8003cb2 <__swsetup_r+0xba>
 8003cc2:	bf00      	nop
 8003cc4:	2000017c 	.word	0x2000017c
 8003cc8:	0800413c 	.word	0x0800413c
 8003ccc:	0800415c 	.word	0x0800415c
 8003cd0:	0800411c 	.word	0x0800411c

08003cd4 <_close_r>:
 8003cd4:	b538      	push	{r3, r4, r5, lr}
 8003cd6:	2300      	movs	r3, #0
 8003cd8:	4c05      	ldr	r4, [pc, #20]	; (8003cf0 <_close_r+0x1c>)
 8003cda:	4605      	mov	r5, r0
 8003cdc:	4608      	mov	r0, r1
 8003cde:	6023      	str	r3, [r4, #0]
 8003ce0:	f7fe fff8 	bl	8002cd4 <_close>
 8003ce4:	1c43      	adds	r3, r0, #1
 8003ce6:	d102      	bne.n	8003cee <_close_r+0x1a>
 8003ce8:	6823      	ldr	r3, [r4, #0]
 8003cea:	b103      	cbz	r3, 8003cee <_close_r+0x1a>
 8003cec:	602b      	str	r3, [r5, #0]
 8003cee:	bd38      	pop	{r3, r4, r5, pc}
 8003cf0:	20001384 	.word	0x20001384

08003cf4 <__sflush_r>:
 8003cf4:	898a      	ldrh	r2, [r1, #12]
 8003cf6:	e92d 41f0 	stmdb	sp!, {r4, r5, r6, r7, r8, lr}
 8003cfa:	4605      	mov	r5, r0
 8003cfc:	0710      	lsls	r0, r2, #28
 8003cfe:	460c      	mov	r4, r1
 8003d00:	d45a      	bmi.n	8003db8 <__sflush_r+0xc4>
 8003d02:	684b      	ldr	r3, [r1, #4]
 8003d04:	2b00      	cmp	r3, #0
 8003d06:	dc05      	bgt.n	8003d14 <__sflush_r+0x20>
 8003d08:	6c0b      	ldr	r3, [r1, #64]	; 0x40
 8003d0a:	2b00      	cmp	r3, #0
 8003d0c:	dc02      	bgt.n	8003d14 <__sflush_r+0x20>
 8003d0e:	2000      	movs	r0, #0
 8003d10:	e8bd 81f0 	ldmia.w	sp!, {r4, r5, r6, r7, r8, pc}
 8003d14:	6ae6      	ldr	r6, [r4, #44]	; 0x2c
 8003d16:	2e00      	cmp	r6, #0
 8003d18:	d0f9      	beq.n	8003d0e <__sflush_r+0x1a>
 8003d1a:	2300      	movs	r3, #0
 8003d1c:	f412 5280 	ands.w	r2, r2, #4096	; 0x1000
 8003d20:	682f      	ldr	r7, [r5, #0]
 8003d22:	602b      	str	r3, [r5, #0]
 8003d24:	d033      	beq.n	8003d8e <__sflush_r+0x9a>
 8003d26:	6d60      	ldr	r0, [r4, #84]	; 0x54
 8003d28:	89a3      	ldrh	r3, [r4, #12]
 8003d2a:	075a      	lsls	r2, r3, #29
 8003d2c:	d505      	bpl.n	8003d3a <__sflush_r+0x46>
 8003d2e:	6863      	ldr	r3, [r4, #4]
 8003d30:	1ac0      	subs	r0, r0, r3
 8003d32:	6b63      	ldr	r3, [r4, #52]	; 0x34
 8003d34:	b10b      	cbz	r3, 8003d3a <__sflush_r+0x46>
 8003d36:	6c23      	ldr	r3, [r4, #64]	; 0x40
 8003d38:	1ac0      	subs	r0, r0, r3
 8003d3a:	2300      	movs	r3, #0
 8003d3c:	4602      	mov	r2, r0
 8003d3e:	6ae6      	ldr	r6, [r4, #44]	; 0x2c
 8003d40:	6a21      	ldr	r1, [r4, #32]
 8003d42:	4628      	mov	r0, r5
 8003d44:	47b0      	blx	r6
 8003d46:	1c43      	adds	r3, r0, #1
 8003d48:	89a3      	ldrh	r3, [r4, #12]
 8003d4a:	d106      	bne.n	8003d5a <__sflush_r+0x66>
 8003d4c:	6829      	ldr	r1, [r5, #0]
 8003d4e:	291d      	cmp	r1, #29
 8003d50:	d84b      	bhi.n	8003dea <__sflush_r+0xf6>
 8003d52:	4a2b      	ldr	r2, [pc, #172]	; (8003e00 <__sflush_r+0x10c>)
 8003d54:	40ca      	lsrs	r2, r1
 8003d56:	07d6      	lsls	r6, r2, #31
 8003d58:	d547      	bpl.n	8003dea <__sflush_r+0xf6>
 8003d5a:	2200      	movs	r2, #0
 8003d5c:	6062      	str	r2, [r4, #4]
 8003d5e:	6922      	ldr	r2, [r4, #16]
 8003d60:	04d9      	lsls	r1, r3, #19
 8003d62:	6022      	str	r2, [r4, #0]
 8003d64:	d504      	bpl.n	8003d70 <__sflush_r+0x7c>
 8003d66:	1c42      	adds	r2, r0, #1
 8003d68:	d101      	bne.n	8003d6e <__sflush_r+0x7a>
 8003d6a:	682b      	ldr	r3, [r5, #0]
 8003d6c:	b903      	cbnz	r3, 8003d70 <__sflush_r+0x7c>
 8003d6e:	6560      	str	r0, [r4, #84]	; 0x54
 8003d70:	6b61      	ldr	r1, [r4, #52]	; 0x34
 8003d72:	602f      	str	r7, [r5, #0]
 8003d74:	2900      	cmp	r1, #0
 8003d76:	d0ca      	beq.n	8003d0e <__sflush_r+0x1a>
 8003d78:	f104 0344 	add.w	r3, r4, #68	; 0x44
 8003d7c:	4299      	cmp	r1, r3
 8003d7e:	d002      	beq.n	8003d86 <__sflush_r+0x92>
 8003d80:	4628      	mov	r0, r5
 8003d82:	f000 f8ef 	bl	8003f64 <_free_r>
 8003d86:	2000      	movs	r0, #0
 8003d88:	6360      	str	r0, [r4, #52]	; 0x34
 8003d8a:	e8bd 81f0 	ldmia.w	sp!, {r4, r5, r6, r7, r8, pc}
 8003d8e:	6a21      	ldr	r1, [r4, #32]
 8003d90:	2301      	movs	r3, #1
 8003d92:	4628      	mov	r0, r5
 8003d94:	47b0      	blx	r6
 8003d96:	1c41      	adds	r1, r0, #1
 8003d98:	d1c6      	bne.n	8003d28 <__sflush_r+0x34>
 8003d9a:	682b      	ldr	r3, [r5, #0]
 8003d9c:	2b00      	cmp	r3, #0
 8003d9e:	d0c3      	beq.n	8003d28 <__sflush_r+0x34>
 8003da0:	2b1d      	cmp	r3, #29
 8003da2:	d001      	beq.n	8003da8 <__sflush_r+0xb4>
 8003da4:	2b16      	cmp	r3, #22
 8003da6:	d101      	bne.n	8003dac <__sflush_r+0xb8>
 8003da8:	602f      	str	r7, [r5, #0]
 8003daa:	e7b0      	b.n	8003d0e <__sflush_r+0x1a>
 8003dac:	89a3      	ldrh	r3, [r4, #12]
 8003dae:	f043 0340 	orr.w	r3, r3, #64	; 0x40
 8003db2:	81a3      	strh	r3, [r4, #12]
 8003db4:	e8bd 81f0 	ldmia.w	sp!, {r4, r5, r6, r7, r8, pc}
 8003db8:	690f      	ldr	r7, [r1, #16]
 8003dba:	2f00      	cmp	r7, #0
 8003dbc:	d0a7      	beq.n	8003d0e <__sflush_r+0x1a>
 8003dbe:	0793      	lsls	r3, r2, #30
 8003dc0:	bf18      	it	ne
 8003dc2:	2300      	movne	r3, #0
 8003dc4:	680e      	ldr	r6, [r1, #0]
 8003dc6:	bf08      	it	eq
 8003dc8:	694b      	ldreq	r3, [r1, #20]
 8003dca:	eba6 0807 	sub.w	r8, r6, r7
 8003dce:	600f      	str	r7, [r1, #0]
 8003dd0:	608b      	str	r3, [r1, #8]
 8003dd2:	f1b8 0f00 	cmp.w	r8, #0
 8003dd6:	dd9a      	ble.n	8003d0e <__sflush_r+0x1a>
 8003dd8:	4643      	mov	r3, r8
 8003dda:	463a      	mov	r2, r7
 8003ddc:	6a21      	ldr	r1, [r4, #32]
 8003dde:	4628      	mov	r0, r5
 8003de0:	6aa6      	ldr	r6, [r4, #40]	; 0x28
 8003de2:	47b0      	blx	r6
 8003de4:	2800      	cmp	r0, #0
 8003de6:	dc07      	bgt.n	8003df8 <__sflush_r+0x104>
 8003de8:	89a3      	ldrh	r3, [r4, #12]
 8003dea:	f043 0340 	orr.w	r3, r3, #64	; 0x40
 8003dee:	81a3      	strh	r3, [r4, #12]
 8003df0:	f04f 30ff 	mov.w	r0, #4294967295
 8003df4:	e8bd 81f0 	ldmia.w	sp!, {r4, r5, r6, r7, r8, pc}
 8003df8:	4407      	add	r7, r0
 8003dfa:	eba8 0800 	sub.w	r8, r8, r0
 8003dfe:	e7e8      	b.n	8003dd2 <__sflush_r+0xde>
 8003e00:	20400001 	.word	0x20400001

08003e04 <_fflush_r>:
 8003e04:	b538      	push	{r3, r4, r5, lr}
 8003e06:	690b      	ldr	r3, [r1, #16]
 8003e08:	4605      	mov	r5, r0
 8003e0a:	460c      	mov	r4, r1
 8003e0c:	b1db      	cbz	r3, 8003e46 <_fflush_r+0x42>
 8003e0e:	b118      	cbz	r0, 8003e18 <_fflush_r+0x14>
 8003e10:	6983      	ldr	r3, [r0, #24]
 8003e12:	b90b      	cbnz	r3, 8003e18 <_fflush_r+0x14>
 8003e14:	f7ff fa44 	bl	80032a0 <__sinit>
 8003e18:	4b0c      	ldr	r3, [pc, #48]	; (8003e4c <_fflush_r+0x48>)
 8003e1a:	429c      	cmp	r4, r3
 8003e1c:	d109      	bne.n	8003e32 <_fflush_r+0x2e>
 8003e1e:	686c      	ldr	r4, [r5, #4]
 8003e20:	f9b4 300c 	ldrsh.w	r3, [r4, #12]
 8003e24:	b17b      	cbz	r3, 8003e46 <_fflush_r+0x42>
 8003e26:	4621      	mov	r1, r4
 8003e28:	4628      	mov	r0, r5
 8003e2a:	e8bd 4038 	ldmia.w	sp!, {r3, r4, r5, lr}
 8003e2e:	f7ff bf61 	b.w	8003cf4 <__sflush_r>
 8003e32:	4b07      	ldr	r3, [pc, #28]	; (8003e50 <_fflush_r+0x4c>)
 8003e34:	429c      	cmp	r4, r3
 8003e36:	d101      	bne.n	8003e3c <_fflush_r+0x38>
 8003e38:	68ac      	ldr	r4, [r5, #8]
 8003e3a:	e7f1      	b.n	8003e20 <_fflush_r+0x1c>
 8003e3c:	4b05      	ldr	r3, [pc, #20]	; (8003e54 <_fflush_r+0x50>)
 8003e3e:	429c      	cmp	r4, r3
 8003e40:	bf08      	it	eq
 8003e42:	68ec      	ldreq	r4, [r5, #12]
 8003e44:	e7ec      	b.n	8003e20 <_fflush_r+0x1c>
 8003e46:	2000      	movs	r0, #0
 8003e48:	bd38      	pop	{r3, r4, r5, pc}
 8003e4a:	bf00      	nop
 8003e4c:	0800413c 	.word	0x0800413c
 8003e50:	0800415c 	.word	0x0800415c
 8003e54:	0800411c 	.word	0x0800411c

08003e58 <_lseek_r>:
 8003e58:	b538      	push	{r3, r4, r5, lr}
 8003e5a:	4605      	mov	r5, r0
 8003e5c:	4608      	mov	r0, r1
 8003e5e:	4611      	mov	r1, r2
 8003e60:	2200      	movs	r2, #0
 8003e62:	4c05      	ldr	r4, [pc, #20]	; (8003e78 <_lseek_r+0x20>)
 8003e64:	6022      	str	r2, [r4, #0]
 8003e66:	461a      	mov	r2, r3
 8003e68:	f7fe ff3e 	bl	8002ce8 <_lseek>
 8003e6c:	1c43      	adds	r3, r0, #1
 8003e6e:	d102      	bne.n	8003e76 <_lseek_r+0x1e>
 8003e70:	6823      	ldr	r3, [r4, #0]
 8003e72:	b103      	cbz	r3, 8003e76 <_lseek_r+0x1e>
 8003e74:	602b      	str	r3, [r5, #0]
 8003e76:	bd38      	pop	{r3, r4, r5, pc}
 8003e78:	20001384 	.word	0x20001384

08003e7c <__swhatbuf_r>:
 8003e7c:	b570      	push	{r4, r5, r6, lr}
 8003e7e:	460e      	mov	r6, r1
 8003e80:	f9b1 100e 	ldrsh.w	r1, [r1, #14]
 8003e84:	b090      	sub	sp, #64	; 0x40
 8003e86:	2900      	cmp	r1, #0
 8003e88:	4614      	mov	r4, r2
 8003e8a:	461d      	mov	r5, r3
 8003e8c:	da07      	bge.n	8003e9e <__swhatbuf_r+0x22>
 8003e8e:	2300      	movs	r3, #0
 8003e90:	602b      	str	r3, [r5, #0]
 8003e92:	89b3      	ldrh	r3, [r6, #12]
 8003e94:	061a      	lsls	r2, r3, #24
 8003e96:	d410      	bmi.n	8003eba <__swhatbuf_r+0x3e>
 8003e98:	f44f 6380 	mov.w	r3, #1024	; 0x400
 8003e9c:	e00e      	b.n	8003ebc <__swhatbuf_r+0x40>
 8003e9e:	aa01      	add	r2, sp, #4
 8003ea0:	f000 f8be 	bl	8004020 <_fstat_r>
 8003ea4:	2800      	cmp	r0, #0
 8003ea6:	dbf2      	blt.n	8003e8e <__swhatbuf_r+0x12>
 8003ea8:	9a02      	ldr	r2, [sp, #8]
 8003eaa:	f402 4270 	and.w	r2, r2, #61440	; 0xf000
 8003eae:	f5a2 5300 	sub.w	r3, r2, #8192	; 0x2000
 8003eb2:	425a      	negs	r2, r3
 8003eb4:	415a      	adcs	r2, r3
 8003eb6:	602a      	str	r2, [r5, #0]
 8003eb8:	e7ee      	b.n	8003e98 <__swhatbuf_r+0x1c>
 8003eba:	2340      	movs	r3, #64	; 0x40
 8003ebc:	2000      	movs	r0, #0
 8003ebe:	6023      	str	r3, [r4, #0]
 8003ec0:	b010      	add	sp, #64	; 0x40
 8003ec2:	bd70      	pop	{r4, r5, r6, pc}

08003ec4 <__smakebuf_r>:
 8003ec4:	898b      	ldrh	r3, [r1, #12]
 8003ec6:	b573      	push	{r0, r1, r4, r5, r6, lr}
 8003ec8:	079d      	lsls	r5, r3, #30
 8003eca:	4606      	mov	r6, r0
 8003ecc:	460c      	mov	r4, r1
 8003ece:	d507      	bpl.n	8003ee0 <__smakebuf_r+0x1c>
 8003ed0:	f104 0347 	add.w	r3, r4, #71	; 0x47
 8003ed4:	6023      	str	r3, [r4, #0]
 8003ed6:	6123      	str	r3, [r4, #16]
 8003ed8:	2301      	movs	r3, #1
 8003eda:	6163      	str	r3, [r4, #20]
 8003edc:	b002      	add	sp, #8
 8003ede:	bd70      	pop	{r4, r5, r6, pc}
 8003ee0:	ab01      	add	r3, sp, #4
 8003ee2:	466a      	mov	r2, sp
 8003ee4:	f7ff ffca 	bl	8003e7c <__swhatbuf_r>
 8003ee8:	9900      	ldr	r1, [sp, #0]
 8003eea:	4605      	mov	r5, r0
 8003eec:	4630      	mov	r0, r6
 8003eee:	f7ff fa61 	bl	80033b4 <_malloc_r>
 8003ef2:	b948      	cbnz	r0, 8003f08 <__smakebuf_r+0x44>
 8003ef4:	f9b4 300c 	ldrsh.w	r3, [r4, #12]
 8003ef8:	059a      	lsls	r2, r3, #22
 8003efa:	d4ef      	bmi.n	8003edc <__smakebuf_r+0x18>
 8003efc:	f023 0303 	bic.w	r3, r3, #3
 8003f00:	f043 0302 	orr.w	r3, r3, #2
 8003f04:	81a3      	strh	r3, [r4, #12]
 8003f06:	e7e3      	b.n	8003ed0 <__smakebuf_r+0xc>
 8003f08:	4b0d      	ldr	r3, [pc, #52]	; (8003f40 <__smakebuf_r+0x7c>)
 8003f0a:	62b3      	str	r3, [r6, #40]	; 0x28
 8003f0c:	89a3      	ldrh	r3, [r4, #12]
 8003f0e:	6020      	str	r0, [r4, #0]
 8003f10:	f043 0380 	orr.w	r3, r3, #128	; 0x80
 8003f14:	81a3      	strh	r3, [r4, #12]
 8003f16:	9b00      	ldr	r3, [sp, #0]
 8003f18:	6120      	str	r0, [r4, #16]
 8003f1a:	6163      	str	r3, [r4, #20]
 8003f1c:	9b01      	ldr	r3, [sp, #4]
 8003f1e:	b15b      	cbz	r3, 8003f38 <__smakebuf_r+0x74>
 8003f20:	f9b4 100e 	ldrsh.w	r1, [r4, #14]
 8003f24:	4630      	mov	r0, r6
 8003f26:	f000 f88d 	bl	8004044 <_isatty_r>
 8003f2a:	b128      	cbz	r0, 8003f38 <__smakebuf_r+0x74>
 8003f2c:	89a3      	ldrh	r3, [r4, #12]
 8003f2e:	f023 0303 	bic.w	r3, r3, #3
 8003f32:	f043 0301 	orr.w	r3, r3, #1
 8003f36:	81a3      	strh	r3, [r4, #12]
 8003f38:	89a3      	ldrh	r3, [r4, #12]
 8003f3a:	431d      	orrs	r5, r3
 8003f3c:	81a5      	strh	r5, [r4, #12]
 8003f3e:	e7cd      	b.n	8003edc <__smakebuf_r+0x18>
 8003f40:	08003221 	.word	0x08003221

08003f44 <memchr>:
 8003f44:	b510      	push	{r4, lr}
 8003f46:	b2c9      	uxtb	r1, r1
 8003f48:	4402      	add	r2, r0
 8003f4a:	4290      	cmp	r0, r2
 8003f4c:	4603      	mov	r3, r0
 8003f4e:	d101      	bne.n	8003f54 <memchr+0x10>
 8003f50:	2000      	movs	r0, #0
 8003f52:	bd10      	pop	{r4, pc}
 8003f54:	781c      	ldrb	r4, [r3, #0]
 8003f56:	3001      	adds	r0, #1
 8003f58:	428c      	cmp	r4, r1
 8003f5a:	d1f6      	bne.n	8003f4a <memchr+0x6>
 8003f5c:	4618      	mov	r0, r3
 8003f5e:	bd10      	pop	{r4, pc}

08003f60 <__malloc_lock>:
 8003f60:	4770      	bx	lr

08003f62 <__malloc_unlock>:
 8003f62:	4770      	bx	lr

08003f64 <_free_r>:
 8003f64:	b538      	push	{r3, r4, r5, lr}
 8003f66:	4605      	mov	r5, r0
 8003f68:	2900      	cmp	r1, #0
 8003f6a:	d043      	beq.n	8003ff4 <_free_r+0x90>
 8003f6c:	f851 3c04 	ldr.w	r3, [r1, #-4]
 8003f70:	1f0c      	subs	r4, r1, #4
 8003f72:	2b00      	cmp	r3, #0
 8003f74:	bfb8      	it	lt
 8003f76:	18e4      	addlt	r4, r4, r3
 8003f78:	f7ff fff2 	bl	8003f60 <__malloc_lock>
 8003f7c:	4a1e      	ldr	r2, [pc, #120]	; (8003ff8 <_free_r+0x94>)
 8003f7e:	6813      	ldr	r3, [r2, #0]
 8003f80:	4610      	mov	r0, r2
 8003f82:	b933      	cbnz	r3, 8003f92 <_free_r+0x2e>
 8003f84:	6063      	str	r3, [r4, #4]
 8003f86:	6014      	str	r4, [r2, #0]
 8003f88:	4628      	mov	r0, r5
 8003f8a:	e8bd 4038 	ldmia.w	sp!, {r3, r4, r5, lr}
 8003f8e:	f7ff bfe8 	b.w	8003f62 <__malloc_unlock>
 8003f92:	42a3      	cmp	r3, r4
 8003f94:	d90b      	bls.n	8003fae <_free_r+0x4a>
 8003f96:	6821      	ldr	r1, [r4, #0]
 8003f98:	1862      	adds	r2, r4, r1
 8003f9a:	4293      	cmp	r3, r2
 8003f9c:	bf01      	itttt	eq
 8003f9e:	681a      	ldreq	r2, [r3, #0]
 8003fa0:	685b      	ldreq	r3, [r3, #4]
 8003fa2:	1852      	addeq	r2, r2, r1
 8003fa4:	6022      	streq	r2, [r4, #0]
 8003fa6:	6063      	str	r3, [r4, #4]
 8003fa8:	6004      	str	r4, [r0, #0]
 8003faa:	e7ed      	b.n	8003f88 <_free_r+0x24>
 8003fac:	4613      	mov	r3, r2
 8003fae:	685a      	ldr	r2, [r3, #4]
 8003fb0:	b10a      	cbz	r2, 8003fb6 <_free_r+0x52>
 8003fb2:	42a2      	cmp	r2, r4
 8003fb4:	d9fa      	bls.n	8003fac <_free_r+0x48>
 8003fb6:	6819      	ldr	r1, [r3, #0]
 8003fb8:	1858      	adds	r0, r3, r1
 8003fba:	42a0      	cmp	r0, r4
 8003fbc:	d10b      	bne.n	8003fd6 <_free_r+0x72>
 8003fbe:	6820      	ldr	r0, [r4, #0]
 8003fc0:	4401      	add	r1, r0
 8003fc2:	1858      	adds	r0, r3, r1
 8003fc4:	4282      	cmp	r2, r0
 8003fc6:	6019      	str	r1, [r3, #0]
 8003fc8:	d1de      	bne.n	8003f88 <_free_r+0x24>
 8003fca:	6810      	ldr	r0, [r2, #0]
 8003fcc:	6852      	ldr	r2, [r2, #4]
 8003fce:	4401      	add	r1, r0
 8003fd0:	6019      	str	r1, [r3, #0]
 8003fd2:	605a      	str	r2, [r3, #4]
 8003fd4:	e7d8      	b.n	8003f88 <_free_r+0x24>
 8003fd6:	d902      	bls.n	8003fde <_free_r+0x7a>
 8003fd8:	230c      	movs	r3, #12
 8003fda:	602b      	str	r3, [r5, #0]
 8003fdc:	e7d4      	b.n	8003f88 <_free_r+0x24>
 8003fde:	6820      	ldr	r0, [r4, #0]
 8003fe0:	1821      	adds	r1, r4, r0
 8003fe2:	428a      	cmp	r2, r1
 8003fe4:	bf01      	itttt	eq
 8003fe6:	6811      	ldreq	r1, [r2, #0]
 8003fe8:	6852      	ldreq	r2, [r2, #4]
 8003fea:	1809      	addeq	r1, r1, r0
 8003fec:	6021      	streq	r1, [r4, #0]
 8003fee:	6062      	str	r2, [r4, #4]
 8003ff0:	605c      	str	r4, [r3, #4]
 8003ff2:	e7c9      	b.n	8003f88 <_free_r+0x24>
 8003ff4:	bd38      	pop	{r3, r4, r5, pc}
 8003ff6:	bf00      	nop
 8003ff8:	20000438 	.word	0x20000438

08003ffc <_read_r>:
 8003ffc:	b538      	push	{r3, r4, r5, lr}
 8003ffe:	4605      	mov	r5, r0
 8004000:	4608      	mov	r0, r1
 8004002:	4611      	mov	r1, r2
 8004004:	2200      	movs	r2, #0
 8004006:	4c05      	ldr	r4, [pc, #20]	; (800401c <_read_r+0x20>)
 8004008:	6022      	str	r2, [r4, #0]
 800400a:	461a      	mov	r2, r3
 800400c:	f7fe fe2c 	bl	8002c68 <_read>
 8004010:	1c43      	adds	r3, r0, #1
 8004012:	d102      	bne.n	800401a <_read_r+0x1e>
 8004014:	6823      	ldr	r3, [r4, #0]
 8004016:	b103      	cbz	r3, 800401a <_read_r+0x1e>
 8004018:	602b      	str	r3, [r5, #0]
 800401a:	bd38      	pop	{r3, r4, r5, pc}
 800401c:	20001384 	.word	0x20001384

08004020 <_fstat_r>:
 8004020:	b538      	push	{r3, r4, r5, lr}
 8004022:	2300      	movs	r3, #0
 8004024:	4c06      	ldr	r4, [pc, #24]	; (8004040 <_fstat_r+0x20>)
 8004026:	4605      	mov	r5, r0
 8004028:	4608      	mov	r0, r1
 800402a:	4611      	mov	r1, r2
 800402c:	6023      	str	r3, [r4, #0]
 800402e:	f7fe fe54 	bl	8002cda <_fstat>
 8004032:	1c43      	adds	r3, r0, #1
 8004034:	d102      	bne.n	800403c <_fstat_r+0x1c>
 8004036:	6823      	ldr	r3, [r4, #0]
 8004038:	b103      	cbz	r3, 800403c <_fstat_r+0x1c>
 800403a:	602b      	str	r3, [r5, #0]
 800403c:	bd38      	pop	{r3, r4, r5, pc}
 800403e:	bf00      	nop
 8004040:	20001384 	.word	0x20001384

08004044 <_isatty_r>:
 8004044:	b538      	push	{r3, r4, r5, lr}
 8004046:	2300      	movs	r3, #0
 8004048:	4c05      	ldr	r4, [pc, #20]	; (8004060 <_isatty_r+0x1c>)
 800404a:	4605      	mov	r5, r0
 800404c:	4608      	mov	r0, r1
 800404e:	6023      	str	r3, [r4, #0]
 8004050:	f7fe fe48 	bl	8002ce4 <_isatty>
 8004054:	1c43      	adds	r3, r0, #1
 8004056:	d102      	bne.n	800405e <_isatty_r+0x1a>
 8004058:	6823      	ldr	r3, [r4, #0]
 800405a:	b103      	cbz	r3, 800405e <_isatty_r+0x1a>
 800405c:	602b      	str	r3, [r5, #0]
 800405e:	bd38      	pop	{r3, r4, r5, pc}
 8004060:	20001384 	.word	0x20001384

08004064 <_init>:
 8004064:	b5f8      	push	{r3, r4, r5, r6, r7, lr}
 8004066:	bf00      	nop
 8004068:	bcf8      	pop	{r3, r4, r5, r6, r7}
 800406a:	bc08      	pop	{r3}
 800406c:	469e      	mov	lr, r3
 800406e:	4770      	bx	lr

08004070 <_fini>:
 8004070:	b5f8      	push	{r3, r4, r5, r6, r7, lr}
 8004072:	bf00      	nop
 8004074:	bcf8      	pop	{r3, r4, r5, r6, r7}
 8004076:	bc08      	pop	{r3}
 8004078:	469e      	mov	lr, r3
 800407a:	4770      	bx	lr
